Concurrent recompilation has been disabled for tracing.
[generated bytecode for function: ]
Parameter count 1
Frame size 32
         0x1605c61a45a2 @    0 : 12 00             LdaConstant [0]
         0x1605c61a45a4 @    2 : 26 fa             Star r1
         0x1605c61a45a6 @    4 : 0b                LdaZero 
         0x1605c61a45a7 @    5 : 26 f9             Star r2
         0x1605c61a45a9 @    7 : 27 fe f8          Mov <closure>, r3
         0x1605c61a45ac @   10 : 5e 45 01 fa 03    CallRuntime [DeclareGlobals], r1-r3
    0 E> 0x1605c61a45b1 @   15 : a0                StackCheck 
  419 S> 0x1605c61a45b2 @   16 : 13 01 03          LdaGlobal [1], [3]
         0x1605c61a45b5 @   19 : 26 fa             Star r1
  419 E> 0x1605c61a45b7 @   21 : 5a fa 06          CallUndefinedReceiver0 r1, [6]
         0x1605c61a45ba @   24 : 26 fb             Star r0
  451 S> 0x1605c61a45bc @   26 : a4                Return 
Constant pool (size = 2)
0x1605c61a4529: [FixedArray] in OldSpace
 - map: 0x1605f2a823c1 <Map>
 - length: 2
           0: 0x1605c61a43f9 <FixedArray[8]>
           1: 0x1605c61a4309 <String[29]: callVeryRecognizableFunctions>
Handler Table (size = 0)
[generated bytecode for function: callVeryRecognizableFunctions]
Parameter count 1
Frame size 16
  310 E> 0x1605c61a4872 @    0 : a0                StackCheck 
  325 S> 0x1605c61a4873 @    1 : 0b                LdaZero 
         0x1605c61a4874 @    2 : 26 fb             Star r0
  334 S> 0x1605c61a4876 @    4 : 0b                LdaZero 
  336 E> 0x1605c61a4877 @    5 : 15 00 00          StaGlobal [0], [0]
  343 S> 0x1605c61a487a @    8 : 13 00 02          LdaGlobal [0], [2]
         0x1605c61a487d @   11 : 26 fa             Star r1
         0x1605c61a487f @   13 : 01 0c a0 86 01 00 LdaSmi.ExtraWide [100000]
  343 E> 0x1605c61a4885 @   19 : 66 fa 04          TestLessThan r1, [4]
         0x1605c61a4888 @   22 : 94 18             JumpIfFalse [24] (0x1605c61a48a0 @ 46)
  330 E> 0x1605c61a488a @   24 : a0                StackCheck 
  364 S> 0x1605c61a488b @   25 : 13 01 05          LdaGlobal [1], [5]
         0x1605c61a488e @   28 : 26 fa             Star r1
  368 E> 0x1605c61a4890 @   30 : 5a fa 07          CallUndefinedReceiver0 r1, [7]
         0x1605c61a4893 @   33 : 26 fb             Star r0
  354 S> 0x1605c61a4895 @   35 : 13 00 02          LdaGlobal [0], [2]
         0x1605c61a4898 @   38 : 4a 09             Inc [9]
  354 E> 0x1605c61a489a @   40 : 15 00 00          StaGlobal [0], [0]
         0x1605c61a489d @   43 : 85 23 00          JumpLoop [35], [0] (0x1605c61a487a @ 8)
  407 S> 0x1605c61a48a0 @   46 : 13 02 0a          LdaGlobal [2], [10]
         0x1605c61a48a3 @   49 : 26 fa             Star r1
  407 E> 0x1605c61a48a5 @   51 : 5b fa fb 0c       CallUndefinedReceiver1 r1, r0, [12]
         0x1605c61a48a9 @   55 : 0d                LdaUndefined 
  416 S> 0x1605c61a48aa @   56 : a4                Return 
Constant pool (size = 3)
0x1605c61a47e1: [FixedArray] in OldSpace
 - map: 0x1605f2a823c1 <Map>
 - length: 3
           0: 0x160580605be1 <String[1]: i>
           1: 0x1605c61a4271 <String[29]: aVeryRecognizableFunctionName>
           2: 0x1605c619f531 <String[5]: print>
Handler Table (size = 0)
[generated bytecode for function: aVeryRecognizableFunctionName]
Parameter count 1
Frame size 48
   38 E> 0x1605c61a4b42 @    0 : a0                StackCheck 
   53 S> 0x1605c61a4b43 @    1 : 0c 0d             LdaSmi [13]
         0x1605c61a4b45 @    3 : 26 fb             Star r0
   59 S> 0x1605c61a4b47 @    5 : 0c 0f             LdaSmi [15]
         0x1605c61a4b49 @    7 : 26 fb             Star r0
   69 S> 0x1605c61a4b4b @    9 : 0c 11             LdaSmi [17]
         0x1605c61a4b4d @   11 : 26 fb             Star r0
   87 S> 0x1605c61a4b4f @   13 : 7a                CreateEmptyObjectLiteral 
         0x1605c61a4b50 @   14 : 26 fa             Star r1
   93 S> 0x1605c61a4b52 @   16 : 0c 15             LdaSmi [21]
   99 E> 0x1605c61a4b54 @   18 : 2c fa 00 00       StaNamedProperty r1, [0], [0]
  107 S> 0x1605c61a4b58 @   22 : 0c 17             LdaSmi [23]
  113 E> 0x1605c61a4b5a @   24 : 2c fa 00 00       StaNamedProperty r1, [0], [0]
  121 S> 0x1605c61a4b5e @   28 : 0c 19             LdaSmi [25]
  127 E> 0x1605c61a4b60 @   30 : 2c fa 00 00       StaNamedProperty r1, [0], [0]
  145 S> 0x1605c61a4b64 @   34 : 13 01 02          LdaGlobal [1], [2]
         0x1605c61a4b67 @   37 : 26 f7             Star r4
         0x1605c61a4b69 @   39 : 0c 10             LdaSmi [16]
         0x1605c61a4b6b @   41 : 26 f6             Star r5
         0x1605c61a4b6d @   43 : 25 f7             Ldar r4
  145 E> 0x1605c61a4b6f @   45 : 62 f7 f6 01 04    Construct r4, r5-r5, [4]
         0x1605c61a4b74 @   50 : 26 f9             Star r2
  178 S> 0x1605c61a4b76 @   52 : 13 02 06          LdaGlobal [2], [6]
         0x1605c61a4b79 @   55 : 26 f7             Star r4
         0x1605c61a4b7b @   57 : 25 f7             Ldar r4
  178 E> 0x1605c61a4b7d @   59 : 62 f7 f9 01 08    Construct r4, r2-r2, [8]
         0x1605c61a4b82 @   64 : 26 f8             Star r3
  201 S> 0x1605c61a4b84 @   66 : 0c 01             LdaSmi [1]
         0x1605c61a4b86 @   68 : 26 f6             Star r5
         0x1605c61a4b88 @   70 : 0c 05             LdaSmi [5]
  208 E> 0x1605c61a4b8a @   72 : 2e f8 f6 0a       StaKeyedProperty r3, r5, [10]
  215 S> 0x1605c61a4b8e @   76 : 0c 01             LdaSmi [1]
         0x1605c61a4b90 @   78 : 26 f6             Star r5
         0x1605c61a4b92 @   80 : 0c 07             LdaSmi [7]
  222 E> 0x1605c61a4b94 @   82 : 2e f8 f6 0c       StaKeyedProperty r3, r5, [12]
  229 S> 0x1605c61a4b98 @   86 : 0c 01             LdaSmi [1]
         0x1605c61a4b9a @   88 : 26 f6             Star r5
         0x1605c61a4b9c @   90 : 0c 09             LdaSmi [9]
  236 E> 0x1605c61a4b9e @   92 : 2e f8 f6 0e       StaKeyedProperty r3, r5, [14]
  243 S> 0x1605c61a4ba2 @   96 : 0c 01             LdaSmi [1]
  253 E> 0x1605c61a4ba4 @   98 : 29 f8 10          LdaKeyedProperty r3, [16]
         0x1605c61a4ba7 @  101 : 26 f7             Star r4
         0x1605c61a4ba9 @  103 : 25 fb             Ldar r0
  257 E> 0x1605c61a4bab @  105 : 32 f7 12          Add r4, [18]
         0x1605c61a4bae @  108 : 26 f7             Star r4
  265 E> 0x1605c61a4bb0 @  110 : 28 fa 00 13       LdaNamedProperty r1, [0], [19]
  261 E> 0x1605c61a4bb4 @  114 : 32 f7 15          Add r4, [21]
  268 S> 0x1605c61a4bb7 @  117 : a4                Return 
Constant pool (size = 3)
0x1605c61a4a99: [FixedArray] in OldSpace
 - map: 0x1605f2a823c1 <Map>
 - length: 3
           0: 0x1605c61a42a9 <String[3]: foo>
           1: 0x1605f2ab8611 <String[11]: ArrayBuffer>
           2: 0x1605f2ab8791 <String[10]: Int32Array>
Handler Table (size = 0)
---------------------------------------------------
Begin compiling StoreFastElementStub using Turbofan
--- Code ---
kind = STUB
major_key = StoreFastElementStub
minor_key = 128
name = StoreFastElementStub
compiler = turbofan
address = 0x3945ffd91741
Body (size = 1800)
Instructions (size = 1776)
                  -- B0 start (construct frame) --
0x3945ffd91780     0  55             push rbp
0x3945ffd91781     1  4889e5         REX.W movq rbp,rsp
0x3945ffd91784     4  6a18           push 0x18
0x3945ffd91786     6  4883ec50       REX.W subq rsp,0x50
                  ; StoreFastElementStub: js_array=0, elements_kind=INT32_ELEMENTS, store_mode=0
                  ; [ Assert: Word32BinaryNot(IsJSProxy(object))
                  ; [ Assert: IsStrongHeapObject(object)
0x3945ffd9178a     a  4c8bc2         REX.W movq r8,rdx
0x3945ffd9178d     d  4983e003       REX.W andq r8,0x3
0x3945ffd91791    11  488955d8       REX.W movq [rbp-0x28],rdx
0x3945ffd91795    15  48894dd0       REX.W movq [rbp-0x30],rcx
0x3945ffd91799    19  488945f0       REX.W movq [rbp-0x10],rax
0x3945ffd9179d    1d  48897de8       REX.W movq [rbp-0x18],rdi
0x3945ffd917a1    21  48895de0       REX.W movq [rbp-0x20],rbx
0x3945ffd917a5    25  488975c8       REX.W movq [rbp-0x38],rsi
0x3945ffd917a9    29  4983f801       REX.W cmpq r8,0x1
0x3945ffd917ad    2d  0f858a040000   jnz 0x3945ffd91c3d  <+0x4bd>
                  -- B2 start --
                  ; ] Assert
0x3945ffd917b3    33  4c8b42ff       REX.W movq r8,[rdx-0x1]
                  ; [ Assert: IsStrongHeapObject(object)
0x3945ffd917b7    37  4d8bc8         REX.W movq r9,r8
0x3945ffd917ba    3a  4983e103       REX.W andq r9,0x3
0x3945ffd917be    3e  4983f901       REX.W cmpq r9,0x1
0x3945ffd917c2    42  0f858e040000   jnz 0x3945ffd91c56  <+0x4d6>
                  -- B4 start --
                  ; ] Assert
0x3945ffd917c8    48  664181780b0004 cmpw [r8+0xb],0x400
0x3945ffd917cf    4f  0f849a040000   jz 0x3945ffd91c6f  <+0x4ef>
                  -- B6 start --
                  ; ] Assert
                  ; [ Assert: IsStrongHeapObject(object)
0x3945ffd917d5    55  4c8bc2         REX.W movq r8,rdx
0x3945ffd917d8    58  4983e003       REX.W andq r8,0x3
0x3945ffd917dc    5c  4983f801       REX.W cmpq r8,0x1
0x3945ffd917e0    60  0f85a2040000   jnz 0x3945ffd91c88  <+0x508>
                  -- B8 start --
                  ; ] Assert
0x3945ffd917e6    66  4c8b420f       REX.W movq r8,[rdx+0xf]
0x3945ffd917ea    6a  4989e2         REX.W movq r10,rsp
0x3945ffd917ed    6d  4883ec08       REX.W subq rsp,0x8
0x3945ffd917f1    71  4883e4f0       REX.W andq rsp,0xf0
0x3945ffd917f5    75  4c891424       REX.W movq [rsp],r10
0x3945ffd917f9    79  4c8945b0       REX.W movq [rbp-0x50],r8
0x3945ffd917fd    7d  4c8bf7         REX.W movq r14,rdi
0x3945ffd91800    80  48bf002001258f7f0000 REX.W movq rdi,0x7f8f25012000    ;; external reference (isolate)
0x3945ffd9180a    8a  4c8bde         REX.W movq r11,rsi
0x3945ffd9180d    8d  498bf0         REX.W movq rsi,r8
0x3945ffd91810    90  4c8be2         REX.W movq r12,rdx
0x3945ffd91813    93  48ba000000002d000000 REX.W movq rdx,0x2d00000000
0x3945ffd9181d    9d  4c8bc9         REX.W movq r9,rcx
0x3945ffd91820    a0  48b9b157a8f205160000 REX.W movq rcx,0x1605f2a857b1    ;; object: 0x1605f2a857b1 <String[97]: CAST(LoadObjectField(object, JSObject::kElementsOffset)) at ../../src/code-stub-assembler.cc:1537>
0x3945ffd9182a    aa  48b8501ee40c01000000 REX.W movq rax,0x10ce41e50    ;; external reference (check_object_type)
0x3945ffd91834    b4  40f6c40f       testb rsp,0xf
0x3945ffd91838    b8  7401           jz 0x3945ffd9183b  <+0xbb>
0x3945ffd9183a    ba  cc             int3l
0x3945ffd9183b    bb  ffd0           call rax
0x3945ffd9183d    bd  488b2424       REX.W movq rsp,[rsp]
                  ; [ Assert: Word32BinaryNot(IsFixedCOWArrayMap(LoadMap(elements)))
                  ; [ Assert: IsStrongHeapObject(object)
0x3945ffd91841    c1  488b45b0       REX.W movq rax,[rbp-0x50]
0x3945ffd91845    c5  4883e003       REX.W andq rax,0x3
0x3945ffd91849    c9  4883f801       REX.W cmpq rax,0x1
0x3945ffd9184d    cd  0f854e040000   jnz 0x3945ffd91ca1  <+0x521>
                  -- B10 start --
                  ; ] Assert
0x3945ffd91853    d3  488b75b0       REX.W movq rsi,[rbp-0x50]
0x3945ffd91857    d7  488b46ff       REX.W movq rax,[rsi-0x1]
0x3945ffd9185b    db  493945e8       REX.W cmpq [r13-0x18],rax
0x3945ffd9185f    df  0f8455040000   jz 0x3945ffd91cba  <+0x53a>
                  -- B12 start --
                  ; ] Assert
0x3945ffd91865    e5  f645d001       testb [rbp-0x30],0x1
0x3945ffd91869    e9  0f845e000000   jz 0x3945ffd918cd  <+0x14d>
                  -- B13 start --
                  ; [ Assert: IsStrongHeapObject(object)
0x3945ffd9186f    ef  488b45d0       REX.W movq rax,[rbp-0x30]
0x3945ffd91873    f3  4883e003       REX.W andq rax,0x3
0x3945ffd91877    f7  4883f801       REX.W cmpq rax,0x1
0x3945ffd9187b    fb  0f8552040000   jnz 0x3945ffd91cd3  <+0x553>
                  -- B15 start --
                  ; ] Assert
0x3945ffd91881   101  488b45d0       REX.W movq rax,[rbp-0x30]
0x3945ffd91885   105  488b58ff       REX.W movq rbx,[rax-0x1]
0x3945ffd91889   109  49395d50       REX.W cmpq [r13+0x50],rbx
0x3945ffd9188d   10d  0f8545030000   jnz 0x3945ffd91bd8  <+0x458>
                  -- B16 start --
                  -- B17 start --
                  ; [ Assert: IsStrongHeapObject(object)
0x3945ffd91893   113  488bd8         REX.W movq rbx,rax
0x3945ffd91896   116  4883e303       REX.W andq rbx,0x3
0x3945ffd9189a   11a  4883fb01       REX.W cmpq rbx,0x1
0x3945ffd9189e   11e  0f8548040000   jnz 0x3945ffd91cec  <+0x56c>
                  -- B19 start --
                  ; ] Assert
0x3945ffd918a4   124  c5fb104007     vmovsd xmm0,[rax+0x7]
0x3945ffd918a9   129  c5fb2cd8       vcvttsd2si rbx,xmm0
0x3945ffd918ad   12d  c5f157c9       vxorpd xmm1,xmm1,xmm1
0x3945ffd918b1   131  c5f32acb       vcvtlsi2sd xmm1,xmm1,rbx
0x3945ffd918b5   135  c5f92ec8       vucomisd xmm1,xmm0
0x3945ffd918b9   139  0f8a19030000   jpe 0x3945ffd91bd8  <+0x458>
0x3945ffd918bf   13f  0f8513030000   jnz 0x3945ffd91bd8  <+0x458>
                  -- B20 start --
                  -- B21 start --
0x3945ffd918c5   145  4863db         REX.W movsxlq rbx,rbx
0x3945ffd918c8   148  e90c000000     jmp 0x3945ffd918d9  <+0x159>
                  -- B22 start --
0x3945ffd918cd   14d  488b5dd0       REX.W movq rbx,[rbp-0x30]
0x3945ffd918d1   151  48c1fb20       REX.W sarq rbx, 32
0x3945ffd918d5   155  488b45d0       REX.W movq rax,[rbp-0x30]
                  -- B23 start --
0x3945ffd918d9   159  4989e2         REX.W movq r10,rsp
0x3945ffd918dc   15c  4883ec08       REX.W subq rsp,0x8
0x3945ffd918e0   160  4883e4f0       REX.W andq rsp,0xf0
0x3945ffd918e4   164  4c891424       REX.W movq [rsp],r10
0x3945ffd918e8   168  48895dc0       REX.W movq [rbp-0x40],rbx
0x3945ffd918ec   16c  48bf002001258f7f0000 REX.W movq rdi,0x7f8f25012000    ;; external reference (isolate)
0x3945ffd918f6   176  33d2           xorl rdx,rdx
0x3945ffd918f8   178  48b9b145abf205160000 REX.W movq rcx,0x1605f2ab45b1    ;; object: 0x1605f2ab45b1 <String[52]: CAST(value) at ../../src/code-stub-assembler.cc:9307>
0x3945ffd91902   182  4c8bc6         REX.W movq r8,rsi
0x3945ffd91905   185  488b75f0       REX.W movq rsi,[rbp-0x10]
0x3945ffd91909   189  48b8501ee40c01000000 REX.W movq rax,0x10ce41e50    ;; external reference (check_object_type)
0x3945ffd91913   193  40f6c40f       testb rsp,0xf
0x3945ffd91917   197  7401           jz 0x3945ffd9191a  <+0x19a>
0x3945ffd91919   199  cc             int3l
0x3945ffd9191a   19a  ffd0           call rax
0x3945ffd9191c   19c  488b2424       REX.W movq rsp,[rsp]
0x3945ffd91920   1a0  4989e2         REX.W movq r10,rsp
0x3945ffd91923   1a3  4883ec08       REX.W subq rsp,0x8
0x3945ffd91927   1a7  4883e4f0       REX.W andq rsp,0xf0
0x3945ffd9192b   1ab  4c891424       REX.W movq [rsp],r10
0x3945ffd9192f   1af  48bf002001258f7f0000 REX.W movq rdi,0x7f8f25012000    ;; external reference (isolate)
0x3945ffd91939   1b9  48ba000000001d000000 REX.W movq rdx,0x1d00000000
0x3945ffd91943   1c3  48b90146abf205160000 REX.W movq rcx,0x1605f2ab4601    ;; object: 0x1605f2ab4601 <String[54]: CAST(context) at ../../src/code-stub-assembler.cc:9308>
0x3945ffd9194d   1cd  488b75c8       REX.W movq rsi,[rbp-0x38]
0x3945ffd91951   1d1  48b8501ee40c01000000 REX.W movq rax,0x10ce41e50    ;; external reference (check_object_type)
0x3945ffd9195b   1db  40f6c40f       testb rsp,0xf
0x3945ffd9195f   1df  7401           jz 0x3945ffd91962  <+0x1e2>
0x3945ffd91961   1e1  cc             int3l
0x3945ffd91962   1e2  ffd0           call rax
0x3945ffd91964   1e4  488b2424       REX.W movq rsp,[rsp]
0x3945ffd91968   1e8  488b45f0       REX.W movq rax,[rbp-0x10]
0x3945ffd9196c   1ec  0f1f4000       nop
                  -- B24 start (loop up to 31) --
0x3945ffd91970   1f0  a801           test al,0x1
0x3945ffd91972   1f2  0f8494000000   jz 0x3945ffd91a0c  <+0x28c>
                  -- B25 start (in loop 24) --
                  ; [ Assert: IsStrongHeapObject(object)
0x3945ffd91978   1f8  488bd8         REX.W movq rbx,rax
0x3945ffd9197b   1fb  4883e303       REX.W andq rbx,0x3
0x3945ffd9197f   1ff  4883fb01       REX.W cmpq rbx,0x1
0x3945ffd91983   203  0f857c030000   jnz 0x3945ffd91d05  <+0x585>
                  -- B26 start (in loop 24) --
                  ; ] Assert
0x3945ffd91989   209  488b58ff       REX.W movq rbx,[rax-0x1]
0x3945ffd9198d   20d  49395d50       REX.W cmpq [r13+0x50],rbx
0x3945ffd91991   211  0f8449000000   jz 0x3945ffd919e0  <+0x260>
                  -- B27 start (in loop 24) --
                  ; [ Assert: IsStrongHeapObject(object)
0x3945ffd91997   217  488bd8         REX.W movq rbx,rax
0x3945ffd9199a   21a  4883e303       REX.W andq rbx,0x3
0x3945ffd9199e   21e  4883fb01       REX.W cmpq rbx,0x1
0x3945ffd919a2   222  0f8576030000   jnz 0x3945ffd91d1e  <+0x59e>
                  -- B28 start (in loop 24) --
                  ; ] Assert
0x3945ffd919a8   228  488b58ff       REX.W movq rbx,[rax-0x1]
                  ; [ Assert: IsStrongHeapObject(object)
0x3945ffd919ac   22c  488bd3         REX.W movq rdx,rbx
0x3945ffd919af   22f  4883e203       REX.W andq rdx,0x3
0x3945ffd919b3   233  4883fa01       REX.W cmpq rdx,0x1
0x3945ffd919b7   237  0f857a030000   jnz 0x3945ffd91d37  <+0x5b7>
                  -- B29 start (in loop 24) --
                  ; ] Assert
0x3945ffd919bd   23d  66817b0b8300   cmpw [rbx+0xb],0x83
0x3945ffd919c3   243  0f8417000000   jz 0x3945ffd919e0  <+0x260>
                  -- B30 start (in loop 24) --
0x3945ffd919c9   249  488b45f0       REX.W movq rax,[rbp-0x10]
0x3945ffd919cd   24d  488b75c8       REX.W movq rsi,[rbp-0x38]
0x3945ffd919d1   251  49ba600aa40d01000000 REX.W movq r10,0x10da40a60  (NonNumberToNumber)    ;; off heap target
0x3945ffd919db   25b  41ffd2         call r10
0x3945ffd919de   25e  eb90           jmp 0x3945ffd91970  <+0x1f0>
                  -- B34 start --
                  -- B35 start --
                  -- B36 start --
                  ; [ Assert: IsStrongHeapObject(object)
0x3945ffd919e0   260  488bd8         REX.W movq rbx,rax
0x3945ffd919e3   263  4883e303       REX.W andq rbx,0x3
0x3945ffd919e7   267  4883fb01       REX.W cmpq rbx,0x1
0x3945ffd919eb   26b  0f855f030000   jnz 0x3945ffd91d50  <+0x5d0>
                  -- B38 start --
                  ; ] Assert
0x3945ffd919f1   271  c5fb104007     vmovsd xmm0,[rax+0x7]
0x3945ffd919f6   276  c4e1fb2cc0     vcvttsd2siq rax,xmm0
0x3945ffd919fb   27b  4883f801       REX.W cmpq rax,0x1
0x3945ffd919ff   27f  0f8045040000   jo 0x3945ffd91e4a  <+0x6ca>
0x3945ffd91a05   285  8bc0           movl rax,rax
0x3945ffd91a07   287  e904000000     jmp 0x3945ffd91a10  <+0x290>
                  -- B39 start --
0x3945ffd91a0c   28c  48c1e820       REX.W shrq rax, 32
                  -- B40 start --
                  ; [ Assert: IsStrongHeapObject(object)
0x3945ffd91a10   290  488b5dd8       REX.W movq rbx,[rbp-0x28]
0x3945ffd91a14   294  4883e303       REX.W andq rbx,0x3
0x3945ffd91a18   298  488945b8       REX.W movq [rbp-0x48],rax
0x3945ffd91a1c   29c  4883fb01       REX.W cmpq rbx,0x1
0x3945ffd91a20   2a0  0f8543030000   jnz 0x3945ffd91d69  <+0x5e9>
                  -- B42 start --
                  ; ] Assert
0x3945ffd91a26   2a6  488b75d8       REX.W movq rsi,[rbp-0x28]
0x3945ffd91a2a   2aa  488b5e17       REX.W movq rbx,[rsi+0x17]
                  ; [ Assert: HasInstanceType(buffer, JS_ARRAY_BUFFER_TYPE)
                  ; [ Assert: IsStrongHeapObject(object)
0x3945ffd91a2e   2ae  488bd3         REX.W movq rdx,rbx
0x3945ffd91a31   2b1  4883e203       REX.W andq rdx,0x3
0x3945ffd91a35   2b5  4883fa01       REX.W cmpq rdx,0x1
0x3945ffd91a39   2b9  0f8543030000   jnz 0x3945ffd91d82  <+0x602>
                  -- B44 start --
                  ; ] Assert
0x3945ffd91a3f   2bf  488b53ff       REX.W movq rdx,[rbx-0x1]
                  ; [ Assert: IsStrongHeapObject(object)
0x3945ffd91a43   2c3  488bca         REX.W movq rcx,rdx
0x3945ffd91a46   2c6  4883e103       REX.W andq rcx,0x3
0x3945ffd91a4a   2ca  4883f901       REX.W cmpq rcx,0x1
0x3945ffd91a4e   2ce  0f8547030000   jnz 0x3945ffd91d9b  <+0x61b>
                  -- B46 start --
                  ; ] Assert
0x3945ffd91a54   2d4  66817a0b2304   cmpw [rdx+0xb],0x423
0x3945ffd91a5a   2da  0f8554030000   jnz 0x3945ffd91db4  <+0x634>
                  -- B48 start --
                  ; ] Assert
                  ; [ Assert: IsStrongHeapObject(object)
0x3945ffd91a60   2e0  488bd3         REX.W movq rdx,rbx
0x3945ffd91a63   2e3  4883e203       REX.W andq rdx,0x3
0x3945ffd91a67   2e7  4883fa01       REX.W cmpq rdx,0x1
0x3945ffd91a6b   2eb  0f855c030000   jnz 0x3945ffd91dcd  <+0x64d>
                  -- B50 start --
                  ; ] Assert
0x3945ffd91a71   2f1  f6432708       testb [rbx+0x27],0x8
0x3945ffd91a75   2f5  0f855d010000   jnz 0x3945ffd91bd8  <+0x458>
                  -- B51 start --
0x3945ffd91a7b   2fb  4989e2         REX.W movq r10,rsp
0x3945ffd91a7e   2fe  4883ec08       REX.W subq rsp,0x8
0x3945ffd91a82   302  4883e4f0       REX.W andq rsp,0xf0
0x3945ffd91a86   306  4c891424       REX.W movq [rsp],r10
0x3945ffd91a8a   30a  48bf002001258f7f0000 REX.W movq rdi,0x7f8f25012000    ;; external reference (isolate)
0x3945ffd91a94   314  48ba0000000064000000 REX.W movq rdx,0x6400000000
0x3945ffd91a9e   31e  48b95146abf205160000 REX.W movq rcx,0x1605f2ab4651    ;; object: 0x1605f2ab4651 <String[53]: CAST(object) at ../../src/code-stub-assembler.cc:9321>
0x3945ffd91aa8   328  488bde         REX.W movq rbx,rsi
0x3945ffd91aab   32b  48b8501ee40c01000000 REX.W movq rax,0x10ce41e50    ;; external reference (check_object_type)
0x3945ffd91ab5   335  40f6c40f       testb rsp,0xf
0x3945ffd91ab9   339  7401           jz 0x3945ffd91abc  <+0x33c>
0x3945ffd91abb   33b  cc             int3l
0x3945ffd91abc   33c  ffd0           call rax
0x3945ffd91abe   33e  488b2424       REX.W movq rsp,[rsp]
                  ; [ Assert: IsStrongHeapObject(object)
0x3945ffd91ac2   342  488b45d8       REX.W movq rax,[rbp-0x28]
0x3945ffd91ac6   346  4883e003       REX.W andq rax,0x3
0x3945ffd91aca   34a  4883f801       REX.W cmpq rax,0x1
0x3945ffd91ace   34e  0f8512030000   jnz 0x3945ffd91de6  <+0x666>
                  -- B53 start --
                  ; ] Assert
0x3945ffd91ad4   354  488b45d8       REX.W movq rax,[rbp-0x28]
0x3945ffd91ad8   358  488b702f       REX.W movq rsi,[rax+0x2f]
0x3945ffd91adc   35c  4989e2         REX.W movq r10,rsp
0x3945ffd91adf   35f  4883ec08       REX.W subq rsp,0x8
0x3945ffd91ae3   363  4883e4f0       REX.W andq rsp,0xf0
0x3945ffd91ae7   367  4c891424       REX.W movq [rsp],r10
0x3945ffd91aeb   36b  488975a8       REX.W movq [rbp-0x58],rsi
0x3945ffd91aef   36f  48bf002001258f7f0000 REX.W movq rdi,0x7f8f25012000    ;; external reference (isolate)
0x3945ffd91af9   379  48ba0000000001000000 REX.W movq rdx,0x100000000
0x3945ffd91b03   383  48b9d1faa8f205160000 REX.W movq rcx,0x1605f2a8fad1    ;; object: 0x1605f2a8fad1 <String[104]: CAST(LoadObjectField(typed_array, JSTypedArray::kLengthOffset)) at ../../src/code-stub-assembler.cc:1583>
0x3945ffd91b0d   38d  488bde         REX.W movq rbx,rsi
0x3945ffd91b10   390  48b8501ee40c01000000 REX.W movq rax,0x10ce41e50    ;; external reference (check_object_type)
0x3945ffd91b1a   39a  40f6c40f       testb rsp,0xf
0x3945ffd91b1e   39e  7401           jz 0x3945ffd91b21  <+0x3a1>
0x3945ffd91b20   3a0  cc             int3l
0x3945ffd91b21   3a1  ffd0           call rax
0x3945ffd91b23   3a3  488b2424       REX.W movq rsp,[rsp]
0x3945ffd91b27   3a7  488b45a8       REX.W movq rax,[rbp-0x58]
0x3945ffd91b2b   3ab  48c1f820       REX.W sarq rax, 32
0x3945ffd91b2f   3af  488b5dc0       REX.W movq rbx,[rbp-0x40]
0x3945ffd91b33   3b3  483bd8         REX.W cmpq rbx,rax
0x3945ffd91b36   3b6  0f839c000000   jnc 0x3945ffd91bd8  <+0x458>
                  -- B54 start --
                  -- B55 start --
0x3945ffd91b3c   3bc  4989e2         REX.W movq r10,rsp
0x3945ffd91b3f   3bf  4883ec08       REX.W subq rsp,0x8
0x3945ffd91b43   3c3  4883e4f0       REX.W andq rsp,0xf0
0x3945ffd91b47   3c7  4c891424       REX.W movq [rsp],r10
0x3945ffd91b4b   3cb  48bf002001258f7f0000 REX.W movq rdi,0x7f8f25012000    ;; external reference (isolate)
0x3945ffd91b55   3d5  48ba0000000038000000 REX.W movq rdx,0x3800000000
0x3945ffd91b5f   3df  48b99147abf205160000 REX.W movq rcx,0x1605f2ab4791    ;; object: 0x1605f2ab4791 <String[55]: CAST(elements) at ../../src/code-stub-assembler.cc:9343>
0x3945ffd91b69   3e9  488b75b0       REX.W movq rsi,[rbp-0x50]
0x3945ffd91b6d   3ed  48b8501ee40c01000000 REX.W movq rax,0x10ce41e50    ;; external reference (check_object_type)
0x3945ffd91b77   3f7  40f6c40f       testb rsp,0xf
0x3945ffd91b7b   3fb  7401           jz 0x3945ffd91b7e  <+0x3fe>
0x3945ffd91b7d   3fd  cc             int3l
0x3945ffd91b7e   3fe  ffd0           call rax
0x3945ffd91b80   400  488b2424       REX.W movq rsp,[rsp]
                  ; [ Assert: IsStrongHeapObject(object)
0x3945ffd91b84   404  488b45b0       REX.W movq rax,[rbp-0x50]
0x3945ffd91b88   408  4883e003       REX.W andq rax,0x3
0x3945ffd91b8c   40c  4883f801       REX.W cmpq rax,0x1
0x3945ffd91b90   410  0f8569020000   jnz 0x3945ffd91dff  <+0x67f>
                  -- B57 start --
                  ; ] Assert
0x3945ffd91b96   416  488b45b0       REX.W movq rax,[rbp-0x50]
0x3945ffd91b9a   41a  488b5817       REX.W movq rbx,[rax+0x17]
                  ; [ Assert: IsStrongHeapObject(object)
0x3945ffd91b9e   41e  488bd0         REX.W movq rdx,rax
0x3945ffd91ba1   421  4883e203       REX.W andq rdx,0x3
0x3945ffd91ba5   425  4883fa01       REX.W cmpq rdx,0x1
0x3945ffd91ba9   429  0f8569020000   jnz 0x3945ffd91e18  <+0x698>
                  -- B59 start --
                  ; ] Assert
0x3945ffd91baf   42f  488b400f       REX.W movq rax,[rax+0xf]
0x3945ffd91bb3   433  4803c3         REX.W addq rax,rbx
                  ; [ Assert: MatchesParameterMode(index_node, mode)
0x3945ffd91bb6   436  bb01000000     movl rbx,0x1
0x3945ffd91bbb   43b  83fb00         cmpl rbx,0x0
0x3945ffd91bbe   43e  0f846d020000   jz 0x3945ffd91e31  <+0x6b1>
                  -- B61 start --
                  ; ] Assert
0x3945ffd91bc4   444  488b55c0       REX.W movq rdx,[rbp-0x40]
0x3945ffd91bc8   448  488b5db8       REX.W movq rbx,[rbp-0x48]
0x3945ffd91bcc   44c  891c90         movl [rax+rdx*4],rbx
                  -- B62 start (deconstruct frame) --
0x3945ffd91bcf   44f  488b45f0       REX.W movq rax,[rbp-0x10]
0x3945ffd91bd3   453  488be5         REX.W movq rsp,rbp
0x3945ffd91bd6   456  5d             pop rbp
0x3945ffd91bd7   457  c3             retl
                  -- B63 start --
                  -- B64 start --
                  ; Miss
0x3945ffd91bd8   458  488b6d00       REX.W movq rbp,[rbp+0x0]
0x3945ffd91bdc   45c  48bb806a330d01000000 REX.W movq rbx,0x10d336a80    ;; external reference (Runtime::KeyedStoreIC_Miss)
0x3945ffd91be6   466  b805000000     movl rax,0x5
0x3945ffd91beb   46b  4c8b542438     REX.W movq r10,[rsp+0x38]
0x3945ffd91bf0   470  4c89542450     REX.W movq [rsp+0x50],r10
0x3945ffd91bf5   475  4c8b542460     REX.W movq r10,[rsp+0x60]
0x3945ffd91bfa   47a  4c89542438     REX.W movq [rsp+0x38],r10
0x3945ffd91bff   47f  4c8b542448     REX.W movq r10,[rsp+0x48]
0x3945ffd91c04   484  4c89542460     REX.W movq [rsp+0x60],r10
0x3945ffd91c09   489  4c8b542440     REX.W movq r10,[rsp+0x40]
0x3945ffd91c0e   48e  4c89542458     REX.W movq [rsp+0x58],r10
0x3945ffd91c13   493  4c8b542430     REX.W movq r10,[rsp+0x30]
0x3945ffd91c18   498  4c89542448     REX.W movq [rsp+0x48],r10
0x3945ffd91c1d   49d  4c8b542428     REX.W movq r10,[rsp+0x28]
0x3945ffd91c22   4a2  4c89542440     REX.W movq [rsp+0x40],r10
0x3945ffd91c27   4a7  488b742420     REX.W movq rsi,[rsp+0x20]
0x3945ffd91c2c   4ac  4883c438       REX.W addq rsp,0x38
0x3945ffd91c30   4b0  49ba6065d70d01000000 REX.W movq r10,0x10dd76560  (CEntry_Return1_DontSaveFPRegs_ArgvOnStack_NoBuiltinExit)    ;; off heap target
0x3945ffd91c3a   4ba  41ffe2         jmp r10
                  -- B65 start (no frame) --
                  -- B1 start (deferred) --
0x3945ffd91c3d   4bd  48ba7959a8f205160000 REX.W movq rdx,0x1605f2a85979    ;; object: 0x1605f2a85979 <String[86]\: CSA_ASSERT failed: IsStrongHeapObject(object) [../../src/code-stub-assembler.cc:1394]\n>
0x3945ffd91c47   4c7  49bae031ab0d01000000 REX.W movq r10,0x10dab31e0  (AbortJS)    ;; off heap target
0x3945ffd91c51   4d1  41ffd2         call r10
0x3945ffd91c54   4d4  cc             int3l
0x3945ffd91c55   4d5  cc             int3l
                  -- B3 start (deferred) --
0x3945ffd91c56   4d6  48ba7959a8f205160000 REX.W movq rdx,0x1605f2a85979    ;; object: 0x1605f2a85979 <String[86]\: CSA_ASSERT failed: IsStrongHeapObject(object) [../../src/code-stub-assembler.cc:1394]\n>
0x3945ffd91c60   4e0  49bae031ab0d01000000 REX.W movq r10,0x10dab31e0  (AbortJS)    ;; off heap target
0x3945ffd91c6a   4ea  41ffd2         call r10
0x3945ffd91c6d   4ed  cc             int3l
0x3945ffd91c6e   4ee  cc             int3l
                  -- B5 start (deferred) --
0x3945ffd91c6f   4ef  48bae959a8f205160000 REX.W movq rdx,0x1605f2a859e9    ;; object: 0x1605f2a859e9 <String[94]\: CSA_ASSERT failed: Word32BinaryNot(IsJSProxy(object)) [../../src/code-stub-assembler.cc:9289]\n>
0x3945ffd91c79   4f9  49bae031ab0d01000000 REX.W movq r10,0x10dab31e0  (AbortJS)    ;; off heap target
0x3945ffd91c83   503  41ffd2         call r10
0x3945ffd91c86   506  cc             int3l
0x3945ffd91c87   507  cc             int3l
                  -- B7 start (deferred) --
0x3945ffd91c88   508  48ba7959a8f205160000 REX.W movq rdx,0x1605f2a85979    ;; object: 0x1605f2a85979 <String[86]\: CSA_ASSERT failed: IsStrongHeapObject(object) [../../src/code-stub-assembler.cc:1394]\n>
0x3945ffd91c92   512  49bae031ab0d01000000 REX.W movq r10,0x10dab31e0  (AbortJS)    ;; off heap target
0x3945ffd91c9c   51c  41ffd2         call r10
0x3945ffd91c9f   51f  cc             int3l
0x3945ffd91ca0   520  cc             int3l
                  -- B9 start (deferred) --
0x3945ffd91ca1   521  48ba7959a8f205160000 REX.W movq rdx,0x1605f2a85979    ;; object: 0x1605f2a85979 <String[86]\: CSA_ASSERT failed: IsStrongHeapObject(object) [../../src/code-stub-assembler.cc:1394]\n>
0x3945ffd91cab   52b  49bae031ab0d01000000 REX.W movq r10,0x10dab31e0  (AbortJS)    ;; off heap target
0x3945ffd91cb5   535  41ffd2         call r10
0x3945ffd91cb8   538  cc             int3l
0x3945ffd91cb9   539  cc             int3l
                  -- B11 start (deferred) --
0x3945ffd91cba   53a  48bad96ca8f205160000 REX.W movq rdx,0x1605f2a86cd9    ;; object: 0x1605f2a86cd9 <String[114]\: CSA_ASSERT failed: Word32BinaryNot(IsFixedCOWArrayMap(LoadMap(elements))) [../../src/code-stub-assembler.cc:9293]\n>
0x3945ffd91cc4   544  49bae031ab0d01000000 REX.W movq r10,0x10dab31e0  (AbortJS)    ;; off heap target
0x3945ffd91cce   54e  41ffd2         call r10
0x3945ffd91cd1   551  cc             int3l
0x3945ffd91cd2   552  cc             int3l
                  -- B14 start (deferred) --
0x3945ffd91cd3   553  48ba7959a8f205160000 REX.W movq rdx,0x1605f2a85979    ;; object: 0x1605f2a85979 <String[86]\: CSA_ASSERT failed: IsStrongHeapObject(object) [../../src/code-stub-assembler.cc:1394]\n>
0x3945ffd91cdd   55d  49bae031ab0d01000000 REX.W movq r10,0x10dab31e0  (AbortJS)    ;; off heap target
0x3945ffd91ce7   567  41ffd2         call r10
0x3945ffd91cea   56a  cc             int3l
0x3945ffd91ceb   56b  cc             int3l
                  -- B18 start (deferred) --
0x3945ffd91cec   56c  48ba7959a8f205160000 REX.W movq rdx,0x1605f2a85979    ;; object: 0x1605f2a85979 <String[86]\: CSA_ASSERT failed: IsStrongHeapObject(object) [../../src/code-stub-assembler.cc:1394]\n>
0x3945ffd91cf6   576  49bae031ab0d01000000 REX.W movq r10,0x10dab31e0  (AbortJS)    ;; off heap target
0x3945ffd91d00   580  41ffd2         call r10
0x3945ffd91d03   583  cc             int3l
0x3945ffd91d04   584  cc             int3l
                  -- B31 start (deferred) --
0x3945ffd91d05   585  48ba7959a8f205160000 REX.W movq rdx,0x1605f2a85979    ;; object: 0x1605f2a85979 <String[86]\: CSA_ASSERT failed: IsStrongHeapObject(object) [../../src/code-stub-assembler.cc:1394]\n>
0x3945ffd91d0f   58f  49bae031ab0d01000000 REX.W movq r10,0x10dab31e0  (AbortJS)    ;; off heap target
0x3945ffd91d19   599  41ffd2         call r10
0x3945ffd91d1c   59c  cc             int3l
0x3945ffd91d1d   59d  cc             int3l
                  -- B32 start (deferred) --
0x3945ffd91d1e   59e  48ba7959a8f205160000 REX.W movq rdx,0x1605f2a85979    ;; object: 0x1605f2a85979 <String[86]\: CSA_ASSERT failed: IsStrongHeapObject(object) [../../src/code-stub-assembler.cc:1394]\n>
0x3945ffd91d28   5a8  49bae031ab0d01000000 REX.W movq r10,0x10dab31e0  (AbortJS)    ;; off heap target
0x3945ffd91d32   5b2  41ffd2         call r10
0x3945ffd91d35   5b5  cc             int3l
0x3945ffd91d36   5b6  cc             int3l
                  -- B33 start (deferred) --
0x3945ffd91d37   5b7  48ba7959a8f205160000 REX.W movq rdx,0x1605f2a85979    ;; object: 0x1605f2a85979 <String[86]\: CSA_ASSERT failed: IsStrongHeapObject(object) [../../src/code-stub-assembler.cc:1394]\n>
0x3945ffd91d41   5c1  49bae031ab0d01000000 REX.W movq r10,0x10dab31e0  (AbortJS)    ;; off heap target
0x3945ffd91d4b   5cb  41ffd2         call r10
0x3945ffd91d4e   5ce  cc             int3l
0x3945ffd91d4f   5cf  cc             int3l
                  -- B37 start (deferred) --
0x3945ffd91d50   5d0  48ba7959a8f205160000 REX.W movq rdx,0x1605f2a85979    ;; object: 0x1605f2a85979 <String[86]\: CSA_ASSERT failed: IsStrongHeapObject(object) [../../src/code-stub-assembler.cc:1394]\n>
0x3945ffd91d5a   5da  49bae031ab0d01000000 REX.W movq r10,0x10dab31e0  (AbortJS)    ;; off heap target
0x3945ffd91d64   5e4  41ffd2         call r10
0x3945ffd91d67   5e7  cc             int3l
0x3945ffd91d68   5e8  cc             int3l
                  -- B41 start (deferred) --
0x3945ffd91d69   5e9  48ba7959a8f205160000 REX.W movq rdx,0x1605f2a85979    ;; object: 0x1605f2a85979 <String[86]\: CSA_ASSERT failed: IsStrongHeapObject(object) [../../src/code-stub-assembler.cc:1394]\n>
0x3945ffd91d73   5f3  49bae031ab0d01000000 REX.W movq r10,0x10dab31e0  (AbortJS)    ;; off heap target
0x3945ffd91d7d   5fd  41ffd2         call r10
0x3945ffd91d80   600  cc             int3l
0x3945ffd91d81   601  cc             int3l
                  -- B43 start (deferred) --
0x3945ffd91d82   602  48ba7959a8f205160000 REX.W movq rdx,0x1605f2a85979    ;; object: 0x1605f2a85979 <String[86]\: CSA_ASSERT failed: IsStrongHeapObject(object) [../../src/code-stub-assembler.cc:1394]\n>
0x3945ffd91d8c   60c  49bae031ab0d01000000 REX.W movq r10,0x10dab31e0  (AbortJS)    ;; off heap target
0x3945ffd91d96   616  41ffd2         call r10
0x3945ffd91d99   619  cc             int3l
0x3945ffd91d9a   61a  cc             int3l
                  -- B45 start (deferred) --
0x3945ffd91d9b   61b  48ba7959a8f205160000 REX.W movq rdx,0x1605f2a85979    ;; object: 0x1605f2a85979 <String[86]\: CSA_ASSERT failed: IsStrongHeapObject(object) [../../src/code-stub-assembler.cc:1394]\n>
0x3945ffd91da5   625  49bae031ab0d01000000 REX.W movq r10,0x10dab31e0  (AbortJS)    ;; off heap target
0x3945ffd91daf   62f  41ffd2         call r10
0x3945ffd91db2   632  cc             int3l
0x3945ffd91db3   633  cc             int3l
                  -- B47 start (deferred) --
0x3945ffd91db4   634  48ba4116a9f205160000 REX.W movq rdx,0x1605f2a91641    ;; object: 0x1605f2a91641 <String[106]\: CSA_ASSERT failed: HasInstanceType(buffer, JS_ARRAY_BUFFER_TYPE) [../../src/code-stub-assembler.cc:11756]\n>
0x3945ffd91dbe   63e  49bae031ab0d01000000 REX.W movq r10,0x10dab31e0  (AbortJS)    ;; off heap target
0x3945ffd91dc8   648  41ffd2         call r10
0x3945ffd91dcb   64b  cc             int3l
0x3945ffd91dcc   64c  cc             int3l
                  -- B49 start (deferred) --
0x3945ffd91dcd   64d  48ba7959a8f205160000 REX.W movq rdx,0x1605f2a85979    ;; object: 0x1605f2a85979 <String[86]\: CSA_ASSERT failed: IsStrongHeapObject(object) [../../src/code-stub-assembler.cc:1394]\n>
0x3945ffd91dd7   657  49bae031ab0d01000000 REX.W movq r10,0x10dab31e0  (AbortJS)    ;; off heap target
0x3945ffd91de1   661  41ffd2         call r10
0x3945ffd91de4   664  cc             int3l
0x3945ffd91de5   665  cc             int3l
                  -- B52 start (deferred) --
0x3945ffd91de6   666  48ba7959a8f205160000 REX.W movq rdx,0x1605f2a85979    ;; object: 0x1605f2a85979 <String[86]\: CSA_ASSERT failed: IsStrongHeapObject(object) [../../src/code-stub-assembler.cc:1394]\n>
0x3945ffd91df0   670  49bae031ab0d01000000 REX.W movq r10,0x10dab31e0  (AbortJS)    ;; off heap target
0x3945ffd91dfa   67a  41ffd2         call r10
0x3945ffd91dfd   67d  cc             int3l
0x3945ffd91dfe   67e  cc             int3l
                  -- B56 start (deferred) --
0x3945ffd91dff   67f  48ba7959a8f205160000 REX.W movq rdx,0x1605f2a85979    ;; object: 0x1605f2a85979 <String[86]\: CSA_ASSERT failed: IsStrongHeapObject(object) [../../src/code-stub-assembler.cc:1394]\n>
0x3945ffd91e09   689  49bae031ab0d01000000 REX.W movq r10,0x10dab31e0  (AbortJS)    ;; off heap target
0x3945ffd91e13   693  41ffd2         call r10
0x3945ffd91e16   696  cc             int3l
0x3945ffd91e17   697  cc             int3l
                  -- B58 start (deferred) --
0x3945ffd91e18   698  48ba7959a8f205160000 REX.W movq rdx,0x1605f2a85979    ;; object: 0x1605f2a85979 <String[86]\: CSA_ASSERT failed: IsStrongHeapObject(object) [../../src/code-stub-assembler.cc:1394]\n>
0x3945ffd91e22   6a2  49bae031ab0d01000000 REX.W movq r10,0x10dab31e0  (AbortJS)    ;; off heap target
0x3945ffd91e2c   6ac  41ffd2         call r10
0x3945ffd91e2f   6af  cc             int3l
0x3945ffd91e30   6b0  cc             int3l
                  -- B60 start (deferred) --
0x3945ffd91e31   6b1  48baa160a8f205160000 REX.W movq rdx,0x1605f2a860a1    ;; object: 0x1605f2a860a1 <String[98]\: CSA_ASSERT failed: MatchesParameterMode(index_node, mode) [../../src/code-stub-assembler.cc:8765]\n>
0x3945ffd91e3b   6bb  49bae031ab0d01000000 REX.W movq r10,0x10dab31e0  (AbortJS)    ;; off heap target
0x3945ffd91e45   6c5  41ffd2         call r10
0x3945ffd91e48   6c8  cc             int3l
0x3945ffd91e49   6c9  cc             int3l
                  -- Out of line code --
0x3945ffd91e4a   6ca  4883ec08       REX.W subq rsp,0x8
0x3945ffd91e4e   6ce  c5fb110424     vmovsd [rsp],xmm0
0x3945ffd91e53   6d3  49ba20f9d70d01000000 REX.W movq r10,0x10dd7f920  (DoubleToI)    ;; off heap target
0x3945ffd91e5d   6dd  41ffd2         call r10
0x3945ffd91e60   6e0  8b0424         movl rax,[rsp]
0x3945ffd91e63   6e3  4883c408       REX.W addq rsp,0x8
0x3945ffd91e67   6e7  e999fbffff     jmp 0x3945ffd91a05  <+0x285>
0x3945ffd91e6c   6ec  90             nop
0x3945ffd91e6d   6ed  0f1f00         nop
                  ;;; Safepoint table.


Safepoints (size = 24)
0x3945ffd919de     25e    NA  0100111101000 (sp -> fp)  <none>

RelocInfo (size = 1223)
0x3945ffd91780  comment  (-- B0 start (construct frame) --)
0x3945ffd9178a  comment  (; StoreFastElementStub: js_array=0, elements_kind=INT32_ELEMENTS, store_mode=0)
0x3945ffd9178a  comment  (; [ Assert: Word32BinaryNot(IsJSProxy(object)))
0x3945ffd9178a  comment  (; [ Assert: IsStrongHeapObject(object))
0x3945ffd917b3  comment  (-- B2 start --)
0x3945ffd917b3  comment  (; ] Assert)
0x3945ffd917b7  comment  (; [ Assert: IsStrongHeapObject(object))
0x3945ffd917c8  comment  (-- B4 start --)
0x3945ffd917c8  comment  (; ] Assert)
0x3945ffd917d5  comment  (-- B6 start --)
0x3945ffd917d5  comment  (; ] Assert)
0x3945ffd917d5  comment  (; [ Assert: IsStrongHeapObject(object))
0x3945ffd917e6  comment  (-- B8 start --)
0x3945ffd917e6  comment  (; ] Assert)
0x3945ffd91802  external reference (isolate)  (0x7f8f25012000)
0x3945ffd91822  embedded object  (0x1605f2a857b1 <String[97]: CAST(LoadObjectField(object, JSObject::kElementsOffset)) at ../../src/code-stub-assembler.cc:1537>)
0x3945ffd9182c  external reference (check_object_type)  (0x10ce41e50)
0x3945ffd91841  comment  (; [ Assert: Word32BinaryNot(IsFixedCOWArrayMap(LoadMap(elements))))
0x3945ffd91841  comment  (; [ Assert: IsStrongHeapObject(object))
0x3945ffd91853  comment  (-- B10 start --)
0x3945ffd91853  comment  (; ] Assert)
0x3945ffd91865  comment  (-- B12 start --)
0x3945ffd91865  comment  (; ] Assert)
0x3945ffd9186f  comment  (-- B13 start --)
0x3945ffd9186f  comment  (; [ Assert: IsStrongHeapObject(object))
0x3945ffd91881  comment  (-- B15 start --)
0x3945ffd91881  comment  (; ] Assert)
0x3945ffd91893  comment  (-- B16 start --)
0x3945ffd91893  comment  (-- B17 start --)
0x3945ffd91893  comment  (; [ Assert: IsStrongHeapObject(object))
0x3945ffd918a4  comment  (-- B19 start --)
0x3945ffd918a4  comment  (; ] Assert)
0x3945ffd918c5  comment  (-- B20 start --)
0x3945ffd918c5  comment  (-- B21 start --)
0x3945ffd918cd  comment  (-- B22 start --)
0x3945ffd918d9  comment  (-- B23 start --)
0x3945ffd918ee  external reference (isolate)  (0x7f8f25012000)
0x3945ffd918fa  embedded object  (0x1605f2ab45b1 <String[52]: CAST(value) at ../../src/code-stub-assembler.cc:9307>)
0x3945ffd9190b  external reference (check_object_type)  (0x10ce41e50)
0x3945ffd91931  external reference (isolate)  (0x7f8f25012000)
0x3945ffd91945  embedded object  (0x1605f2ab4601 <String[54]: CAST(context) at ../../src/code-stub-assembler.cc:9308>)
0x3945ffd91953  external reference (check_object_type)  (0x10ce41e50)
0x3945ffd91970  comment  (-- B24 start (loop up to 31) --)
0x3945ffd91978  comment  (-- B25 start (in loop 24) --)
0x3945ffd91978  comment  (; [ Assert: IsStrongHeapObject(object))
0x3945ffd91989  comment  (-- B26 start (in loop 24) --)
0x3945ffd91989  comment  (; ] Assert)
0x3945ffd91997  comment  (-- B27 start (in loop 24) --)
0x3945ffd91997  comment  (; [ Assert: IsStrongHeapObject(object))
0x3945ffd919a8  comment  (-- B28 start (in loop 24) --)
0x3945ffd919a8  comment  (; ] Assert)
0x3945ffd919ac  comment  (; [ Assert: IsStrongHeapObject(object))
0x3945ffd919bd  comment  (-- B29 start (in loop 24) --)
0x3945ffd919bd  comment  (; ] Assert)
0x3945ffd919c9  comment  (-- B30 start (in loop 24) --)
0x3945ffd919d3  off heap target
0x3945ffd919e0  comment  (-- B34 start --)
0x3945ffd919e0  comment  (-- B35 start --)
0x3945ffd919e0  comment  (-- B36 start --)
0x3945ffd919e0  comment  (; [ Assert: IsStrongHeapObject(object))
0x3945ffd919f1  comment  (-- B38 start --)
0x3945ffd919f1  comment  (; ] Assert)
0x3945ffd91a0c  comment  (-- B39 start --)
0x3945ffd91a10  comment  (-- B40 start --)
0x3945ffd91a10  comment  (; [ Assert: IsStrongHeapObject(object))
0x3945ffd91a26  comment  (-- B42 start --)
0x3945ffd91a26  comment  (; ] Assert)
0x3945ffd91a2e  comment  (; [ Assert: HasInstanceType(buffer, JS_ARRAY_BUFFER_TYPE))
0x3945ffd91a2e  comment  (; [ Assert: IsStrongHeapObject(object))
0x3945ffd91a3f  comment  (-- B44 start --)
0x3945ffd91a3f  comment  (; ] Assert)
0x3945ffd91a43  comment  (; [ Assert: IsStrongHeapObject(object))
0x3945ffd91a54  comment  (-- B46 start --)
0x3945ffd91a54  comment  (; ] Assert)
0x3945ffd91a60  comment  (-- B48 start --)
0x3945ffd91a60  comment  (; ] Assert)
0x3945ffd91a60  comment  (; [ Assert: IsStrongHeapObject(object))
0x3945ffd91a71  comment  (-- B50 start --)
0x3945ffd91a71  comment  (; ] Assert)
0x3945ffd91a7b  comment  (-- B51 start --)
0x3945ffd91a8c  external reference (isolate)  (0x7f8f25012000)
0x3945ffd91aa0  embedded object  (0x1605f2ab4651 <String[53]: CAST(object) at ../../src/code-stub-assembler.cc:9321>)
0x3945ffd91aad  external reference (check_object_type)  (0x10ce41e50)
0x3945ffd91ac2  comment  (; [ Assert: IsStrongHeapObject(object))
0x3945ffd91ad4  comment  (-- B53 start --)
0x3945ffd91ad4  comment  (; ] Assert)
0x3945ffd91af1  external reference (isolate)  (0x7f8f25012000)
0x3945ffd91b05  embedded object  (0x1605f2a8fad1 <String[104]: CAST(LoadObjectField(typed_array, JSTypedArray::kLengthOffset)) at ../../src/code-stub-assembler.cc:1583>)
0x3945ffd91b12  external reference (check_object_type)  (0x10ce41e50)
0x3945ffd91b3c  comment  (-- B54 start --)
0x3945ffd91b3c  comment  (-- B55 start --)
0x3945ffd91b4d  external reference (isolate)  (0x7f8f25012000)
0x3945ffd91b61  embedded object  (0x1605f2ab4791 <String[55]: CAST(elements) at ../../src/code-stub-assembler.cc:9343>)
0x3945ffd91b6f  external reference (check_object_type)  (0x10ce41e50)
0x3945ffd91b84  comment  (; [ Assert: IsStrongHeapObject(object))
0x3945ffd91b96  comment  (-- B57 start --)
0x3945ffd91b96  comment  (; ] Assert)
0x3945ffd91b9e  comment  (; [ Assert: IsStrongHeapObject(object))
0x3945ffd91baf  comment  (-- B59 start --)
0x3945ffd91baf  comment  (; ] Assert)
0x3945ffd91bb6  comment  (; [ Assert: MatchesParameterMode(index_node, mode))
0x3945ffd91bc4  comment  (-- B61 start --)
0x3945ffd91bc4  comment  (; ] Assert)
0x3945ffd91bcf  comment  (-- B62 start (deconstruct frame) --)
0x3945ffd91bd8  comment  (-- B63 start --)
0x3945ffd91bd8  comment  (-- B64 start --)
0x3945ffd91bd8  comment  (; Miss)
0x3945ffd91bde  external reference (Runtime::KeyedStoreIC_Miss)  (0x10d336a80)
0x3945ffd91c32  off heap target
0x3945ffd91c3d  comment  (-- B65 start (no frame) --)
0x3945ffd91c3d  comment  (-- B1 start (deferred) --)
0x3945ffd91c3f  embedded object  (0x1605f2a85979 <String[86]\: CSA_ASSERT failed: IsStrongHeapObject(object) [../../src/code-stub-assembler.cc:1394]\n>)
0x3945ffd91c49  off heap target
0x3945ffd91c56  comment  (-- B3 start (deferred) --)
0x3945ffd91c58  embedded object  (0x1605f2a85979 <String[86]\: CSA_ASSERT failed: IsStrongHeapObject(object) [../../src/code-stub-assembler.cc:1394]\n>)
0x3945ffd91c62  off heap target
0x3945ffd91c6f  comment  (-- B5 start (deferred) --)
0x3945ffd91c71  embedded object  (0x1605f2a859e9 <String[94]\: CSA_ASSERT failed: Word32BinaryNot(IsJSProxy(object)) [../../src/code-stub-assembler.cc:9289]\n>)
0x3945ffd91c7b  off heap target
0x3945ffd91c88  comment  (-- B7 start (deferred) --)
0x3945ffd91c8a  embedded object  (0x1605f2a85979 <String[86]\: CSA_ASSERT failed: IsStrongHeapObject(object) [../../src/code-stub-assembler.cc:1394]\n>)
0x3945ffd91c94  off heap target
0x3945ffd91ca1  comment  (-- B9 start (deferred) --)
0x3945ffd91ca3  embedded object  (0x1605f2a85979 <String[86]\: CSA_ASSERT failed: IsStrongHeapObject(object) [../../src/code-stub-assembler.cc:1394]\n>)
0x3945ffd91cad  off heap target
0x3945ffd91cba  comment  (-- B11 start (deferred) --)
0x3945ffd91cbc  embedded object  (0x1605f2a86cd9 <String[114]\: CSA_ASSERT failed: Word32BinaryNot(IsFixedCOWArrayMap(LoadMap(elements))) [../../src/code-stub-assembler.cc:9293]\n>)
0x3945ffd91cc6  off heap target
0x3945ffd91cd3  comment  (-- B14 start (deferred) --)
0x3945ffd91cd5  embedded object  (0x1605f2a85979 <String[86]\: CSA_ASSERT failed: IsStrongHeapObject(object) [../../src/code-stub-assembler.cc:1394]\n>)
0x3945ffd91cdf  off heap target
0x3945ffd91cec  comment  (-- B18 start (deferred) --)
0x3945ffd91cee  embedded object  (0x1605f2a85979 <String[86]\: CSA_ASSERT failed: IsStrongHeapObject(object) [../../src/code-stub-assembler.cc:1394]\n>)
0x3945ffd91cf8  off heap target
0x3945ffd91d05  comment  (-- B31 start (deferred) --)
0x3945ffd91d07  embedded object  (0x1605f2a85979 <String[86]\: CSA_ASSERT failed: IsStrongHeapObject(object) [../../src/code-stub-assembler.cc:1394]\n>)
0x3945ffd91d11  off heap target
0x3945ffd91d1e  comment  (-- B32 start (deferred) --)
0x3945ffd91d20  embedded object  (0x1605f2a85979 <String[86]\: CSA_ASSERT failed: IsStrongHeapObject(object) [../../src/code-stub-assembler.cc:1394]\n>)
0x3945ffd91d2a  off heap target
0x3945ffd91d37  comment  (-- B33 start (deferred) --)
0x3945ffd91d39  embedded object  (0x1605f2a85979 <String[86]\: CSA_ASSERT failed: IsStrongHeapObject(object) [../../src/code-stub-assembler.cc:1394]\n>)
0x3945ffd91d43  off heap target
0x3945ffd91d50  comment  (-- B37 start (deferred) --)
0x3945ffd91d52  embedded object  (0x1605f2a85979 <String[86]\: CSA_ASSERT failed: IsStrongHeapObject(object) [../../src/code-stub-assembler.cc:1394]\n>)
0x3945ffd91d5c  off heap target
0x3945ffd91d69  comment  (-- B41 start (deferred) --)
0x3945ffd91d6b  embedded object  (0x1605f2a85979 <String[86]\: CSA_ASSERT failed: IsStrongHeapObject(object) [../../src/code-stub-assembler.cc:1394]\n>)
0x3945ffd91d75  off heap target
0x3945ffd91d82  comment  (-- B43 start (deferred) --)
0x3945ffd91d84  embedded object  (0x1605f2a85979 <String[86]\: CSA_ASSERT failed: IsStrongHeapObject(object) [../../src/code-stub-assembler.cc:1394]\n>)
0x3945ffd91d8e  off heap target
0x3945ffd91d9b  comment  (-- B45 start (deferred) --)
0x3945ffd91d9d  embedded object  (0x1605f2a85979 <String[86]\: CSA_ASSERT failed: IsStrongHeapObject(object) [../../src/code-stub-assembler.cc:1394]\n>)
0x3945ffd91da7  off heap target
0x3945ffd91db4  comment  (-- B47 start (deferred) --)
0x3945ffd91db6  embedded object  (0x1605f2a91641 <String[106]\: CSA_ASSERT failed: HasInstanceType(buffer, JS_ARRAY_BUFFER_TYPE) [../../src/code-stub-assembler.cc:11756]\n>)
0x3945ffd91dc0  off heap target
0x3945ffd91dcd  comment  (-- B49 start (deferred) --)
0x3945ffd91dcf  embedded object  (0x1605f2a85979 <String[86]\: CSA_ASSERT failed: IsStrongHeapObject(object) [../../src/code-stub-assembler.cc:1394]\n>)
0x3945ffd91dd9  off heap target
0x3945ffd91de6  comment  (-- B52 start (deferred) --)
0x3945ffd91de8  embedded object  (0x1605f2a85979 <String[86]\: CSA_ASSERT failed: IsStrongHeapObject(object) [../../src/code-stub-assembler.cc:1394]\n>)
0x3945ffd91df2  off heap target
0x3945ffd91dff  comment  (-- B56 start (deferred) --)
0x3945ffd91e01  embedded object  (0x1605f2a85979 <String[86]\: CSA_ASSERT failed: IsStrongHeapObject(object) [../../src/code-stub-assembler.cc:1394]\n>)
0x3945ffd91e0b  off heap target
0x3945ffd91e18  comment  (-- B58 start (deferred) --)
0x3945ffd91e1a  embedded object  (0x1605f2a85979 <String[86]\: CSA_ASSERT failed: IsStrongHeapObject(object) [../../src/code-stub-assembler.cc:1394]\n>)
0x3945ffd91e24  off heap target
0x3945ffd91e31  comment  (-- B60 start (deferred) --)
0x3945ffd91e33  embedded object  (0x1605f2a860a1 <String[98]\: CSA_ASSERT failed: MatchesParameterMode(index_node, mode) [../../src/code-stub-assembler.cc:8765]\n>)
0x3945ffd91e3d  off heap target
0x3945ffd91e4a  comment  (-- Out of line code --)
0x3945ffd91e55  off heap target
0x3945ffd91e70  comment  (;;; Safepoint table.)

--- End code ---
---------------------------------------------------
Finished compiling method StoreFastElementStub using Turbofan
---------------------------------------------------
Begin compiling method aVeryRecognizableFunctionName using Turbofan
RedundantStoreFinder:   #86:Return might observe anything, recording empty set
RedundantStoreFinder:     marking #318:DeoptimizeIf for revisit
RedundantStoreFinder:   #318:DeoptimizeIf might observe anything, recording empty set
RedundantStoreFinder:     marking #194:LoadField for revisit
RedundantStoreFinder:   #194 is LoadField[+24,kRepTaggedSigned](#269), removing all offsets [+24] from set
RedundantStoreFinder:     marking #313:DeoptimizeUnless for revisit
RedundantStoreFinder:   #313:DeoptimizeUnless might observe anything, recording empty set
RedundantStoreFinder:     marking #311:LoadField for revisit
RedundantStoreFinder:   #311 is LoadField[+0,kRepTaggedPointer](#269), removing all offsets [+0] from set
RedundantStoreFinder:     marking #309:DeoptimizeIf for revisit
RedundantStoreFinder:   #309:DeoptimizeIf might observe anything, recording empty set
RedundantStoreFinder:     marking #306:LoadElement for revisit
RedundantStoreFinder:   #306:LoadElement can observe nothing, set stays unchanged
RedundantStoreFinder:     marking #305:UnsafePointerAdd for revisit
RedundantStoreFinder:   #305:UnsafePointerAdd can observe nothing, set stays unchanged
RedundantStoreFinder:     marking #304:Retain for revisit
RedundantStoreFinder:   #304:Retain can observe nothing, set stays unchanged
RedundantStoreFinder:     marking #303:StoreElement for revisit
RedundantStoreFinder:   #303:StoreElement can observe nothing, set stays unchanged
RedundantStoreFinder:     marking #302:UnsafePointerAdd for revisit
RedundantStoreFinder:   #302:UnsafePointerAdd can observe nothing, set stays unchanged
RedundantStoreFinder:     marking #301:Retain for revisit
RedundantStoreFinder:   #301:Retain can observe nothing, set stays unchanged
RedundantStoreFinder:     marking #300:StoreElement for revisit
RedundantStoreFinder:   #300:StoreElement can observe nothing, set stays unchanged
RedundantStoreFinder:     marking #299:UnsafePointerAdd for revisit
RedundantStoreFinder:   #299:UnsafePointerAdd can observe nothing, set stays unchanged
RedundantStoreFinder:     marking #298:Retain for revisit
RedundantStoreFinder:   #298:Retain can observe nothing, set stays unchanged
RedundantStoreFinder:     marking #297:StoreElement for revisit
RedundantStoreFinder:   #297:StoreElement can observe nothing, set stays unchanged
RedundantStoreFinder:     marking #296:UnsafePointerAdd for revisit
RedundantStoreFinder:   #296:UnsafePointerAdd can observe nothing, set stays unchanged
RedundantStoreFinder:     marking #295:Retain for revisit
RedundantStoreFinder:   #295:Retain can observe nothing, set stays unchanged
RedundantStoreFinder:     marking #294:DeoptimizeUnless for revisit
RedundantStoreFinder:   #294:DeoptimizeUnless might observe anything, recording empty set
RedundantStoreFinder:     marking #157:LoadField for revisit
RedundantStoreFinder:   #157 is LoadField[+24,kRepWord64](#155), removing all offsets [+24] from set
RedundantStoreFinder:     marking #156:LoadField for revisit
RedundantStoreFinder:   #156 is LoadField[+16,kRepTagged](#155), removing all offsets [+16] from set
RedundantStoreFinder:     marking #155:LoadField for revisit
RedundantStoreFinder:   #155 is LoadField[+16,kRepTaggedPointer](#149), removing all offsets [+16] from set
RedundantStoreFinder:     marking #154:LoadField for revisit
RedundantStoreFinder:   #154 is LoadField[+24,kRepTaggedPointer](#149), removing all offsets [+24] from set
RedundantStoreFinder:     marking #153:LoadField for revisit
RedundantStoreFinder:   #153 is LoadField[+48,kRepTaggedSigned](#149), removing all offsets [+48] from set
RedundantStoreFinder:     marking #289:DeoptimizeUnless for revisit
RedundantStoreFinder:   #289:DeoptimizeUnless might observe anything, recording empty set
RedundantStoreFinder:     marking #286:LoadField for revisit
RedundantStoreFinder:   #286 is LoadField[+0,kRepTaggedPointer](#149), removing all offsets [+0] from set
RedundantStoreFinder:     marking #149:Call for revisit
RedundantStoreFinder:   #149:Call might observe anything, recording empty set
RedundantStoreFinder:     marking #41:Call for revisit
RedundantStoreFinder:   #41:Call might observe anything, recording empty set
RedundantStoreFinder:     marking #130:StoreField for revisit
RedundantStoreFinder:   #130 is StoreField[+24,kRepTaggedSigned](#269), observable, recording in set
RedundantStoreFinder:     marking #114:StoreField for revisit
RedundantStoreFinder:   #114 is StoreField[+24,kRepTaggedSigned](#269), unobservable
RedundantStoreFinder:     marking #107:EffectPhi for revisit
RedundantStoreFinder:   #107:EffectPhi can observe nothing, set stays unchanged
RedundantStoreFinder:     marking #97:StoreField for revisit
RedundantStoreFinder:     marking #103:StoreField for revisit
RedundantStoreFinder:   #103 is StoreField[+24,kRepTaggedSigned](#269), unobservable
RedundantStoreFinder:     marking #102:StoreField for revisit
RedundantStoreFinder:   #102 is StoreField[+0,kRepTaggedPointer](#269), observable, recording in set
RedundantStoreFinder:     marking #270:LoadField for revisit
RedundantStoreFinder:   #270 is LoadField[+0,kRepTaggedPointer](#269), removing all offsets [+0] from set
RedundantStoreFinder:     marking #208:StoreField for revisit
RedundantStoreFinder:   #208 is StoreField[+48,kRepTagged](#269), observable, recording in set
RedundantStoreFinder:     marking #207:StoreField for revisit
RedundantStoreFinder:   #207 is StoreField[+40,kRepTagged](#269), observable, recording in set
RedundantStoreFinder:     marking #206:StoreField for revisit
RedundantStoreFinder:   #206 is StoreField[+32,kRepTagged](#269), observable, recording in set
RedundantStoreFinder:     marking #205:StoreField for revisit
RedundantStoreFinder:   #205 is StoreField[+24,kRepTagged](#269), observable, recording in set
RedundantStoreFinder:     marking #204:StoreField for revisit
RedundantStoreFinder:   #204 is StoreField[+16,kRepTaggedPointer](#269), observable, recording in set
RedundantStoreFinder:     marking #203:StoreField for revisit
RedundantStoreFinder:   #203 is StoreField[+8,kRepTagged](#269), observable, recording in set
RedundantStoreFinder:     marking #202:StoreField for revisit
RedundantStoreFinder:   #202 is StoreField[+0,kRepTaggedPointer](#269), observable, recording in set
RedundantStoreFinder:     marking #269:AllocateRaw for revisit
RedundantStoreFinder:   #269:AllocateRaw might observe anything, recording empty set
RedundantStoreFinder:     marking #264:EffectPhi for revisit
RedundantStoreFinder:   #264:EffectPhi can observe nothing, set stays unchanged
RedundantStoreFinder:     marking #257:Load for revisit
RedundantStoreFinder:     marking #11:Call for revisit
RedundantStoreFinder:   #11:Call might observe anything, recording empty set
RedundantStoreFinder:     marking #257:Load for revisit
RedundantStoreFinder:   #257:Load can observe nothing, set stays unchanged
RedundantStoreFinder:     marking #0:Start for revisit
RedundantStoreFinder:   #97 is StoreField[+24,kRepTaggedSigned](#269), unobservable
RedundantStoreFinder:     marking #270:LoadField for revisit
RedundantStoreFinder: - Revisiting: #270:LoadField
RedundantStoreFinder:   #270 is LoadField[+0,kRepTaggedPointer](#269), removing all offsets [+0] from set
RedundantStoreFinder:     marking #208:StoreField for revisit
RedundantStoreFinder: - Revisiting: #208:StoreField
RedundantStoreFinder:   #208 is StoreField[+48,kRepTagged](#269), observable, recording in set
RedundantStoreFinder:     marking #207:StoreField for revisit
RedundantStoreFinder: - Revisiting: #207:StoreField
RedundantStoreFinder:   #207 is StoreField[+40,kRepTagged](#269), observable, recording in set
RedundantStoreFinder:     marking #206:StoreField for revisit
RedundantStoreFinder: - Revisiting: #206:StoreField
RedundantStoreFinder:   #206 is StoreField[+32,kRepTagged](#269), observable, recording in set
RedundantStoreFinder:     marking #205:StoreField for revisit
RedundantStoreFinder: - Revisiting: #205:StoreField
RedundantStoreFinder:   #205 is StoreField[+24,kRepTagged](#269), unobservable
RedundantStoreFinder: + No change: stabilized. Not visiting effect inputs.
StoreStoreElimination::Run: Eliminating node #97:StoreField
StoreStoreElimination::Run: Eliminating node #103:StoreField
StoreStoreElimination::Run: Eliminating node #114:StoreField
StoreStoreElimination::Run: Eliminating node #205:StoreField
--- Raw source ---
() {
  var x = 13;
  x = 15;
  x = 17;
  var y = {};
  y.foo = 21;
  y.foo = 23;
  y.foo = 25;
  var sab = new ArrayBuffer(16);
  var arr = new Int32Array(sab);
  arr[1] = 5;
  arr[1] = 7;
  arr[1] = 9;
  return arr[1] + x + y.foo
}


--- Optimized code ---
optimization_id = 0
source_position = 38
kind = OPTIMIZED_FUNCTION
name = aVeryRecognizableFunctionName
stack_slots = 7
compiler = turbofan
address = 0x3945ffddab41
Body (size = 808)
Instructions (size = 740)
                  -- <not inlined:38> --
                  -- Prologue: check code start register --
0x3945ffddab80     0  488d1df9ffffff REX.W leaq rbx,[rip+0xfffffff9]
0x3945ffddab87     7  483bd9         REX.W cmpq rbx,rcx
0x3945ffddab8a     a  7418           jz 0x3945ffddaba4  <+0x24>
                  Abort message: 
                  Wrong value in code start register passed
0x3945ffddab8c     c  48ba000000003e000000 REX.W movq rdx,0x3e00000000
0x3945ffddab96    16  49ba4031ab0d01000000 REX.W movq r10,0x10dab3140  (Abort)    ;; off heap target
0x3945ffddaba0    20  41ffd2         call r10
0x3945ffddaba3    23  cc             int3l
                  -- Prologue: check for deoptimization --
0x3945ffddaba4    24  488b59e0       REX.W movq rbx,[rcx-0x20]
0x3945ffddaba8    28  f6430f01       testb [rbx+0xf],0x1
0x3945ffddabac    2c  0f85eec6f3ff   jnz 0x3945ffd172a0      ;; code: Builtin::CompileLazyDeoptimizedCode
                  -- Prologue: generate speculation poison --
0x3945ffddabb2    32  488d1dc7ffffff REX.W leaq rbx,[rip+0xffffffc7]
0x3945ffddabb9    39  4531e4         xorl r12,r12
0x3945ffddabbc    3c  483bcb         REX.W cmpq rcx,rbx
0x3945ffddabbf    3f  48c7c3ffffffff REX.W movq rbx,0xffffffff
0x3945ffddabc6    46  4c0f44e3       REX.W cmovzq r12,rbx
0x3945ffddabca    4a  4c21e7         REX.W andq rdi,r12
0x3945ffddabcd    4d  4c21e6         REX.W andq rsi,r12
0x3945ffddabd0    50  4c21e4         REX.W andq rsp,r12
                  -- B0 start (construct frame) --
0x3945ffddabd3    53  55             push rbp
0x3945ffddabd4    54  4889e5         REX.W movq rbp,rsp
0x3945ffddabd7    57  56             push rsi
0x3945ffddabd8    58  57             push rdi
0x3945ffddabd9    59  4883ec18       REX.W subq rsp,0x18
0x3945ffddabdd    5d  488975e8       REX.W movq [rbp-0x18],rsi
0x3945ffddabe1    61  493ba5c00f0000 REX.W cmpq rsp,[r13+0xfc0]
0x3945ffddabe8    68  0f8601020000   jna 0x3945ffddadef  <+0x26f>
                  -- B2 start --
                  -- B3 start --
0x3945ffddabee    6e  498b857803c0ff REX.W movq rax,[r13-0x3ffc88]
0x3945ffddabf5    75  488d5838       REX.W leaq rbx,[rax+0x38]
0x3945ffddabf9    79  49399d8003c0ff REX.W cmpq [r13-0x3ffc80],rbx
0x3945ffddac00    80  0f8612020000   jna 0x3945ffddae18  <+0x298>
                  -- B5 start --
                  -- B6 start --
0x3945ffddac06    86  488d5838       REX.W leaq rbx,[rax+0x38]
0x3945ffddac0a    8a  49899d7803c0ff REX.W movq [r13-0x3ffc88],rbx
0x3945ffddac11    91  4883c001       REX.W addq rax,0x1
                  -- <not inlined:87> --
0x3945ffddac15    95  48bb7125202d05160000 REX.W movq rbx,0x16052d202571    ;; object: 0x16052d202571 <Map(HOLEY_ELEMENTS)>
0x3945ffddac1f    9f  488958ff       REX.W movq [rax-0x1],rbx
0x3945ffddac23    a3  498b5d70       REX.W movq rbx,[r13+0x70]
0x3945ffddac27    a7  48895807       REX.W movq [rax+0x7],rbx
0x3945ffddac2b    ab  4889580f       REX.W movq [rax+0xf],rbx
0x3945ffddac2f    af  498b5da0       REX.W movq rbx,[r13-0x60]
0x3945ffddac33    b3  4889581f       REX.W movq [rax+0x1f],rbx
0x3945ffddac37    b7  48895827       REX.W movq [rax+0x27],rbx
0x3945ffddac3b    bb  4889582f       REX.W movq [rax+0x2f],rbx
                  -- <not inlined:99> --
0x3945ffddac3f    bf  488945e0       REX.W movq [rbp-0x20],rax
0x3945ffddac43    c3  48ba79d6202d05160000 REX.W movq rdx,0x16052d20d679    ;; object: 0x16052d20d679 <Map(HOLEY_ELEMENTS)>
0x3945ffddac4d    cd  483950ff       REX.W cmpq [rax-0x1],rdx
0x3945ffddac51    d1  0f8404000000   jz 0x3945ffddac5b  <+0xdb>
                  -- B7 start --
0x3945ffddac57    d7  488950ff       REX.W movq [rax-0x1],rdx
                  -- B8 start --
                  -- B9 start (deconstruct frame) --
                  -- <not inlined:127> --
0x3945ffddac5b    db  48b90000000019000000 REX.W movq rcx,0x1900000000
0x3945ffddac65    e5  48894817       REX.W movq [rax+0x17],rcx
0x3945ffddac69    e9  53             push rbx
0x3945ffddac6a    ea  48b90000000010000000 REX.W movq rcx,0x1000000000
0x3945ffddac74    f4  51             push rcx
                  -- <not inlined:145> --
0x3945ffddac75    f5  4c8bc3         REX.W movq r8,rbx
0x3945ffddac78    f8  4c8bca         REX.W movq r9,rdx
0x3945ffddac7b    fb  488bc8         REX.W movq rcx,rax
0x3945ffddac7e    fe  48ba314a19c605160000 REX.W movq rdx,0x1605c6194a31    ;; object: 0x1605c6194a31 <JSFunction ArrayBuffer (sfi = 0x16058061b531)>
0x3945ffddac88   108  b801000000     movl rax,0x1
0x3945ffddac8d   10d  488b75e8       REX.W movq rsi,[rbp-0x18]
0x3945ffddac91   111  488bfa         REX.W movq rdi,rdx
0x3945ffddac94   114  49ba403aa20d01000000 REX.W movq r10,0x10da23a40  (JSBuiltinsConstructStub)    ;; off heap target
0x3945ffddac9e   11e  41ffd2         call r10
0x3945ffddaca1   121  49c7c4ffffffff REX.W movq r12,0xffffffff
                  -- <not inlined:178> --
0x3945ffddaca8   128  488945d8       REX.W movq [rbp-0x28],rax
0x3945ffddacac   12c  488b75e8       REX.W movq rsi,[rbp-0x18]
0x3945ffddacb0   130  488bc8         REX.W movq rcx,rax
0x3945ffddacb3   133  48b8399e18c605160000 REX.W movq rax,0x1605c6189e39    ;; object: 0x1605c6189e39 <JSFunction Int32Array (sfi = 0x16058061cab1)>
0x3945ffddacbd   13d  498b55a0       REX.W movq rdx,[r13-0x60]
0x3945ffddacc1   141  488bd8         REX.W movq rbx,rax
0x3945ffddacc4   144  488bfa         REX.W movq rdi,rdx
0x3945ffddacc7   147  49bae0ffd00d01000000 REX.W movq r10,0x10dd0ffe0  (CreateTypedArray)    ;; off heap target
0x3945ffddacd1   151  41ffd2         call r10
0x3945ffddacd4   154  49c7c4ffffffff REX.W movq r12,0xffffffff
                  -- <not inlined:208> --
0x3945ffddacdb   15b  48bb9134202d05160000 REX.W movq rbx,0x16052d203491    ;; object: 0x16052d203491 <Map(INT32_ELEMENTS)>
0x3945ffddace5   165  483958ff       REX.W cmpq [rax-0x1],rbx
0x3945ffddace9   169  0f8556010000   jnz 0x3945ffddae45  <+0x2c5>
0x3945ffddacef   16f  488b5817       REX.W movq rbx,[rax+0x17]
0x3945ffddacf3   173  488b500f       REX.W movq rdx,[rax+0xf]
0x3945ffddacf7   177  488b4a0f       REX.W movq rcx,[rdx+0xf]
0x3945ffddacfb   17b  8b7033         movl rsi,[rax+0x33]
0x3945ffddacfe   17e  49ba0000000001000000 REX.W movq r10,0x100000000
0x3945ffddad08   188  4c3bd6         REX.W cmpq r10,rsi
0x3945ffddad0b   18b  7318           jnc 0x3945ffddad25  <+0x1a5>
                  Abort message: 
                  32 bit value in register is not zero-extended
0x3945ffddad0d   18d  48ba0000000001000000 REX.W movq rdx,0x100000000
0x3945ffddad17   197  49ba4031ab0d01000000 REX.W movq r10,0x10dab3140  (Abort)    ;; off heap target
0x3945ffddad21   1a1  41ffd2         call r10
0x3945ffddad24   1a4  cc             int3l
0x3945ffddad25   1a5  488b5217       REX.W movq rdx,[rdx+0x17]
0x3945ffddad29   1a9  83fe01         cmpl rsi,0x1
0x3945ffddad2c   1ac  0f8618010000   jna 0x3945ffddae4a  <+0x2ca>
0x3945ffddad32   1b2  41ba00000000   movl r10,0x0
0x3945ffddad38   1b8  4d0f46e2       REX.W cmovnaq r12,r10
0x3945ffddad3c   1bc  488d3411       REX.W leaq rsi,[rcx+rdx*1]
0x3945ffddad40   1c0  c7460405000000 movl [rsi+0x4],0x5
                  -- <not inlined:222> --
0x3945ffddad47   1c7  488d3411       REX.W leaq rsi,[rcx+rdx*1]
0x3945ffddad4b   1cb  c7460407000000 movl [rsi+0x4],0x7
                  -- <not inlined:236> --
0x3945ffddad52   1d2  488d3411       REX.W leaq rsi,[rcx+rdx*1]
0x3945ffddad56   1d6  c7460409000000 movl [rsi+0x4],0x9
                  -- <not inlined:253> --
0x3945ffddad5d   1dd  488d1c11       REX.W leaq rbx,[rcx+rdx*1]
0x3945ffddad61   1e1  8b5b04         movl rbx,[rbx+0x4]
0x3945ffddad64   1e4  49ba0000000001000000 REX.W movq r10,0x100000000
0x3945ffddad6e   1ee  4c3bd3         REX.W cmpq r10,rbx
0x3945ffddad71   1f1  7318           jnc 0x3945ffddad8b  <+0x20b>
                  Abort message: 
                  32 bit value in register is not zero-extended
0x3945ffddad73   1f3  48ba0000000001000000 REX.W movq rdx,0x100000000
0x3945ffddad7d   1fd  49ba4031ab0d01000000 REX.W movq r10,0x10dab3140  (Abort)    ;; off heap target
0x3945ffddad87   207  41ffd2         call r10
0x3945ffddad8a   20a  cc             int3l
0x3945ffddad8b   20b  4c21e3         REX.W andq rbx,r12
                  -- <not inlined:257> --
0x3945ffddad8e   20e  83c311         addl rbx,0x11
0x3945ffddad91   211  0f80b8000000   jo 0x3945ffddae4f  <+0x2cf>
                  -- <not inlined:265> --
0x3945ffddad97   217  488b55e0       REX.W movq rdx,[rbp-0x20]
0x3945ffddad9b   21b  48b979d6202d05160000 REX.W movq rcx,0x16052d20d679    ;; object: 0x16052d20d679 <Map(HOLEY_ELEMENTS)>
0x3945ffddada5   225  48394aff       REX.W cmpq [rdx-0x1],rcx
0x3945ffddada9   229  0f85a5000000   jnz 0x3945ffddae54  <+0x2d4>
                  -- <not inlined:261> --
0x3945ffddadaf   22f  8b4a1b         movl rcx,[rdx+0x1b]
0x3945ffddadb2   232  49ba0000000001000000 REX.W movq r10,0x100000000
0x3945ffddadbc   23c  4c3bd1         REX.W cmpq r10,rcx
0x3945ffddadbf   23f  7318           jnc 0x3945ffddadd9  <+0x259>
                  Abort message: 
                  32 bit value in register is not zero-extended
0x3945ffddadc1   241  48ba0000000001000000 REX.W movq rdx,0x100000000
0x3945ffddadcb   24b  49ba4031ab0d01000000 REX.W movq r10,0x10dab3140  (Abort)    ;; off heap target
0x3945ffddadd5   255  41ffd2         call r10
0x3945ffddadd8   258  cc             int3l
0x3945ffddadd9   259  03cb           addl rcx,rbx
0x3945ffddaddb   25b  0f8078000000   jo 0x3945ffddae59  <+0x2d9>
                  -- <not inlined:268> --
0x3945ffddade1   261  48c1e120       REX.W shlq rcx, 32
0x3945ffddade5   265  488bc1         REX.W movq rax,rcx
0x3945ffddade8   268  488be5         REX.W movq rsp,rbp
0x3945ffddadeb   26b  5d             pop rbp
0x3945ffddadec   26c  c20800         ret 0x8
                  -- B10 start (no frame) --
                  -- B1 start (deferred) --
                  -- <not inlined:38> --
0x3945ffddadef   26f  48bb60e36c0d01000000 REX.W movq rbx,0x10d6ce360    ;; external reference (Runtime::StackGuard)
0x3945ffddadf9   279  33c0           xorl rax,rax
0x3945ffddadfb   27b  488b75e8       REX.W movq rsi,[rbp-0x18]
0x3945ffddadff   27f  49ba6065d70d01000000 REX.W movq r10,0x10dd76560  (CEntry_Return1_DontSaveFPRegs_ArgvOnStack_NoBuiltinExit)    ;; off heap target
0x3945ffddae09   289  41ffd2         call r10
0x3945ffddae0c   28c  49c7c4ffffffff REX.W movq r12,0xffffffff
0x3945ffddae13   293  e9d6fdffff     jmp 0x3945ffddabee  <+0x6e>
                  -- B4 start (deferred) --
0x3945ffddae18   298  ba38000000     movl rdx,0x38
0x3945ffddae1d   29d  49ba80aca30d01000000 REX.W movq r10,0x10da3ac80  (AllocateInNewSpace)    ;; off heap target
0x3945ffddae27   2a7  41ffd2         call r10
0x3945ffddae2a   2aa  49c7c4ffffffff REX.W movq r12,0xffffffff
0x3945ffddae31   2b1  4883e801       REX.W subq rax,0x1
0x3945ffddae35   2b5  e9ccfdffff     jmp 0x3945ffddac06  <+0x86>
0x3945ffddae3a   2ba  90             nop
0x3945ffddae3b   2bb  e800920a00     call 0x3945ffe84040     ;; debug: deopt position, script offset '145'
                                                             ;; debug: deopt position, inlining id '-1'
                                                             ;; debug: deopt reason '(unknown)'
                                                             ;; debug: deopt index 0
                                                             ;; lazy deoptimization bailout 0
0x3945ffddae40   2c0  e800920a00     call 0x3945ffe84045     ;; debug: deopt position, script offset '178'
                                                             ;; debug: deopt position, inlining id '-1'
                                                             ;; debug: deopt reason '(unknown)'
                                                             ;; debug: deopt index 1
                                                             ;; lazy deoptimization bailout 1
0x3945ffddae45   2c5  e800920200     call 0x3945ffe0404a     ;; debug: deopt position, script offset '208'
                                                             ;; debug: deopt position, inlining id '-1'
                                                             ;; debug: deopt reason 'wrong map'
                                                             ;; debug: deopt index 2
                                                             ;; eager deoptimization bailout 2
0x3945ffddae4a   2ca  e800920200     call 0x3945ffe0404f     ;; debug: deopt position, script offset '208'
                                                             ;; debug: deopt position, inlining id '-1'
                                                             ;; debug: deopt reason 'out of bounds'
                                                             ;; debug: deopt index 3
                                                             ;; eager deoptimization bailout 3
0x3945ffddae4f   2cf  e800920200     call 0x3945ffe04054     ;; debug: deopt position, script offset '257'
                                                             ;; debug: deopt position, inlining id '-1'
                                                             ;; debug: deopt reason 'overflow'
                                                             ;; debug: deopt index 4
                                                             ;; eager deoptimization bailout 4
0x3945ffddae54   2d4  e800920200     call 0x3945ffe04059     ;; debug: deopt position, script offset '265'
                                                             ;; debug: deopt position, inlining id '-1'
                                                             ;; debug: deopt reason 'wrong map'
                                                             ;; debug: deopt index 5
                                                             ;; eager deoptimization bailout 5
0x3945ffddae59   2d9  e800920200     call 0x3945ffe0405e     ;; debug: deopt position, script offset '261'
                                                             ;; debug: deopt position, inlining id '-1'
                                                             ;; debug: deopt reason 'overflow'
                                                             ;; debug: deopt index 6
                                                             ;; eager deoptimization bailout 6
0x3945ffddae5e   2de  e800920a00     call 0x3945ffe84063     ;; debug: deopt position, script offset '38'
                                                             ;; debug: deopt position, inlining id '-1'
                                                             ;; debug: deopt reason '(unknown)'
                                                             ;; debug: deopt index 7
                                                             ;; lazy deoptimization bailout 7
0x3945ffddae63   2e3  90             nop
                  ;;; Safepoint table.

Source positions:
 pc offset  position
         0        38
        95        87
        bf        99
        db       127
        f5       145
       128       178
       15b       208
       1c7       222
       1d2       236
       1dd       253
       20e       257
       217       265
       22f       261
       261       268
       26f        38

Inlined functions (count = 0)

Deoptimization Input Data (deopt points = 8)
 index  bytecode-offset    pc
     0               45   121 
     1              687   154 
     2               72    NA 
     3               72    NA 
     4               98    NA 
     5               98    NA 
     6               98    NA 
     7                0   28c 

Safepoints (size = 68)
0x3945ffddaca1     121   2bb  0110000 (sp -> fp)       0
0x3945ffddacd4     154   2c0  1110000 (sp -> fp)       1
0x3945ffddae0c     28c   2de  0010000 (sp -> fp)       7
0x3945ffddae2a     2aa    NA  0010000 (sp -> fp)  <none>

RelocInfo (size = 589)
0x3945ffddab80  comment  (-- <not inlined:38> --)
0x3945ffddab80  comment  (-- Prologue: check code start register --)
0x3945ffddab8c  comment  (Abort message: )
0x3945ffddab8c  comment  (Wrong value in code start register passed)
0x3945ffddab98  off heap target
0x3945ffddaba4  comment  (-- Prologue: check for deoptimization --)
0x3945ffddabae  code target (BUILTIN CompileLazyDeoptimizedCode)  (0x3945ffd172a0)
0x3945ffddabb2  comment  (-- Prologue: generate speculation poison --)
0x3945ffddabd3  comment  (-- B0 start (construct frame) --)
0x3945ffddabee  comment  (-- B2 start --)
0x3945ffddabee  comment  (-- B3 start --)
0x3945ffddac06  comment  (-- B5 start --)
0x3945ffddac06  comment  (-- B6 start --)
0x3945ffddac15  comment  (-- <not inlined:87> --)
0x3945ffddac17  embedded object  (0x16052d202571 <Map(HOLEY_ELEMENTS)>)
0x3945ffddac3f  comment  (-- <not inlined:99> --)
0x3945ffddac45  embedded object  (0x16052d20d679 <Map(HOLEY_ELEMENTS)>)
0x3945ffddac57  comment  (-- B7 start --)
0x3945ffddac5b  comment  (-- B8 start --)
0x3945ffddac5b  comment  (-- B9 start (deconstruct frame) --)
0x3945ffddac5b  comment  (-- <not inlined:127> --)
0x3945ffddac75  comment  (-- <not inlined:145> --)
0x3945ffddac80  embedded object  (0x1605c6194a31 <JSFunction ArrayBuffer (sfi = 0x16058061b531)>)
0x3945ffddac96  off heap target
0x3945ffddaca8  comment  (-- <not inlined:178> --)
0x3945ffddacb5  embedded object  (0x1605c6189e39 <JSFunction Int32Array (sfi = 0x16058061cab1)>)
0x3945ffddacc9  off heap target
0x3945ffddacdb  comment  (-- <not inlined:208> --)
0x3945ffddacdd  embedded object  (0x16052d203491 <Map(INT32_ELEMENTS)>)
0x3945ffddad0d  comment  (Abort message: )
0x3945ffddad0d  comment  (32 bit value in register is not zero-extended)
0x3945ffddad19  off heap target
0x3945ffddad47  comment  (-- <not inlined:222> --)
0x3945ffddad52  comment  (-- <not inlined:236> --)
0x3945ffddad5d  comment  (-- <not inlined:253> --)
0x3945ffddad73  comment  (Abort message: )
0x3945ffddad73  comment  (32 bit value in register is not zero-extended)
0x3945ffddad7f  off heap target
0x3945ffddad8e  comment  (-- <not inlined:257> --)
0x3945ffddad97  comment  (-- <not inlined:265> --)
0x3945ffddad9d  embedded object  (0x16052d20d679 <Map(HOLEY_ELEMENTS)>)
0x3945ffddadaf  comment  (-- <not inlined:261> --)
0x3945ffddadc1  comment  (Abort message: )
0x3945ffddadc1  comment  (32 bit value in register is not zero-extended)
0x3945ffddadcd  off heap target
0x3945ffddade1  comment  (-- <not inlined:268> --)
0x3945ffddadef  comment  (-- B10 start (no frame) --)
0x3945ffddadef  comment  (-- B1 start (deferred) --)
0x3945ffddadef  comment  (-- <not inlined:38> --)
0x3945ffddadf1  external reference (Runtime::StackGuard)  (0x10d6ce360)
0x3945ffddae01  off heap target
0x3945ffddae18  comment  (-- B4 start (deferred) --)
0x3945ffddae1f  off heap target
0x3945ffddae3b  deopt script offset  (145)
0x3945ffddae3b  deopt inlining id  (-1)
0x3945ffddae3b  deopt reason  ((unknown))
0x3945ffddae3b  deopt index
0x3945ffddae3c  runtime entry  (lazy deoptimization bailout 0)
0x3945ffddae40  deopt script offset  (178)
0x3945ffddae40  deopt inlining id  (-1)
0x3945ffddae40  deopt reason  ((unknown))
0x3945ffddae40  deopt index
0x3945ffddae41  runtime entry  (lazy deoptimization bailout 1)
0x3945ffddae45  deopt script offset  (208)
0x3945ffddae45  deopt inlining id  (-1)
0x3945ffddae45  deopt reason  (wrong map)
0x3945ffddae45  deopt index
0x3945ffddae46  runtime entry  (eager deoptimization bailout 2)
0x3945ffddae4a  deopt script offset  (208)
0x3945ffddae4a  deopt inlining id  (-1)
0x3945ffddae4a  deopt reason  (out of bounds)
0x3945ffddae4a  deopt index
0x3945ffddae4b  runtime entry  (eager deoptimization bailout 3)
0x3945ffddae4f  deopt script offset  (257)
0x3945ffddae4f  deopt inlining id  (-1)
0x3945ffddae4f  deopt reason  (overflow)
0x3945ffddae4f  deopt index
0x3945ffddae50  runtime entry  (eager deoptimization bailout 4)
0x3945ffddae54  deopt script offset  (265)
0x3945ffddae54  deopt inlining id  (-1)
0x3945ffddae54  deopt reason  (wrong map)
0x3945ffddae54  deopt index
0x3945ffddae55  runtime entry  (eager deoptimization bailout 5)
0x3945ffddae59  deopt script offset  (261)
0x3945ffddae59  deopt inlining id  (-1)
0x3945ffddae59  deopt reason  (overflow)
0x3945ffddae59  deopt index
0x3945ffddae5a  runtime entry  (eager deoptimization bailout 6)
0x3945ffddae5e  deopt script offset  (38)
0x3945ffddae5e  deopt inlining id  (-1)
0x3945ffddae5e  deopt reason  ((unknown))
0x3945ffddae5e  deopt index
0x3945ffddae5f  runtime entry  (lazy deoptimization bailout 7)
0x3945ffddae64  comment  (;;; Safepoint table.)

--- End code ---
---------------------------------------------------
Finished compiling method aVeryRecognizableFunctionName using Turbofan
---------------------------------------------------
Begin compiling method callVeryRecognizableFunctions using Turbofan
RedundantStoreFinder:   #66:Deoptimize might observe anything, recording empty set
RedundantStoreFinder:     marking #32:EffectPhi for revisit
RedundantStoreFinder:   #32:EffectPhi can observe nothing, set stays unchanged
RedundantStoreFinder:     marking #72:LoadField for revisit
RedundantStoreFinder:     marking #403:LoadField for revisit
RedundantStoreFinder:   #403 is LoadField[+24,kRepTaggedSigned](#71), removing all offsets [+24] from set
RedundantStoreFinder:     marking #0:Start for revisit
RedundantStoreFinder:   #72 is LoadField[+24,kRepTaggedSigned](#71), removing all offsets [+24] from set
RedundantStoreFinder:     marking #10:EffectPhi for revisit
RedundantStoreFinder:   #10:EffectPhi can observe nothing, set stays unchanged
RedundantStoreFinder:     marking #400:StoreField for revisit
RedundantStoreFinder:     marking #76:StoreField for revisit
RedundantStoreFinder:   #76 is StoreField[+24,kRepTaggedSigned](#71), observable, recording in set
RedundantStoreFinder:     marking #618:DeoptimizeIf for revisit
RedundantStoreFinder:   #618:DeoptimizeIf might observe anything, recording empty set
RedundantStoreFinder:     marking #74:LoadField for revisit
RedundantStoreFinder:   #74 is LoadField[+24,kRepTaggedSigned](#71), removing all offsets [+24] from set
RedundantStoreFinder:     marking #612:DeoptimizeIf for revisit
RedundantStoreFinder:   #612:DeoptimizeIf might observe anything, recording empty set
RedundantStoreFinder:     marking #266:LoadField for revisit
RedundantStoreFinder:   #266 is LoadField[+24,kRepTaggedSigned](#565), removing all offsets [+24] from set
RedundantStoreFinder:     marking #607:DeoptimizeUnless for revisit
RedundantStoreFinder:   #607:DeoptimizeUnless might observe anything, recording empty set
RedundantStoreFinder:     marking #605:LoadField for revisit
RedundantStoreFinder:   #605 is LoadField[+0,kRepTaggedPointer](#565), removing all offsets [+0] from set
RedundantStoreFinder:     marking #603:DeoptimizeIf for revisit
RedundantStoreFinder:   #603:DeoptimizeIf might observe anything, recording empty set
RedundantStoreFinder:     marking #600:LoadElement for revisit
RedundantStoreFinder:   #600:LoadElement can observe nothing, set stays unchanged
RedundantStoreFinder:     marking #599:UnsafePointerAdd for revisit
RedundantStoreFinder:   #599:UnsafePointerAdd can observe nothing, set stays unchanged
RedundantStoreFinder:     marking #598:Retain for revisit
RedundantStoreFinder:   #598:Retain can observe nothing, set stays unchanged
RedundantStoreFinder:     marking #597:StoreElement for revisit
RedundantStoreFinder:   #597:StoreElement can observe nothing, set stays unchanged
RedundantStoreFinder:     marking #596:UnsafePointerAdd for revisit
RedundantStoreFinder:   #596:UnsafePointerAdd can observe nothing, set stays unchanged
RedundantStoreFinder:     marking #595:Retain for revisit
RedundantStoreFinder:   #595:Retain can observe nothing, set stays unchanged
RedundantStoreFinder:     marking #594:StoreElement for revisit
RedundantStoreFinder:   #594:StoreElement can observe nothing, set stays unchanged
RedundantStoreFinder:     marking #593:UnsafePointerAdd for revisit
RedundantStoreFinder:   #593:UnsafePointerAdd can observe nothing, set stays unchanged
RedundantStoreFinder:     marking #592:Retain for revisit
RedundantStoreFinder:   #592:Retain can observe nothing, set stays unchanged
RedundantStoreFinder:     marking #591:StoreElement for revisit
RedundantStoreFinder:   #591:StoreElement can observe nothing, set stays unchanged
RedundantStoreFinder:     marking #590:UnsafePointerAdd for revisit
RedundantStoreFinder:   #590:UnsafePointerAdd can observe nothing, set stays unchanged
RedundantStoreFinder:     marking #589:Retain for revisit
RedundantStoreFinder:   #589:Retain can observe nothing, set stays unchanged
RedundantStoreFinder:     marking #588:DeoptimizeUnless for revisit
RedundantStoreFinder:   #588:DeoptimizeUnless might observe anything, recording empty set
RedundantStoreFinder:     marking #229:LoadField for revisit
RedundantStoreFinder:   #229 is LoadField[+24,kRepWord64](#227), removing all offsets [+24] from set
RedundantStoreFinder:     marking #228:LoadField for revisit
RedundantStoreFinder:   #228 is LoadField[+16,kRepTagged](#227), removing all offsets [+16] from set
RedundantStoreFinder:     marking #227:LoadField for revisit
RedundantStoreFinder:   #227 is LoadField[+16,kRepTaggedPointer](#221), removing all offsets [+16] from set
RedundantStoreFinder:     marking #226:LoadField for revisit
RedundantStoreFinder:   #226 is LoadField[+24,kRepTaggedPointer](#221), removing all offsets [+24] from set
RedundantStoreFinder:     marking #225:LoadField for revisit
RedundantStoreFinder:   #225 is LoadField[+48,kRepTaggedSigned](#221), removing all offsets [+48] from set
RedundantStoreFinder:     marking #584:DeoptimizeUnless for revisit
RedundantStoreFinder:   #584:DeoptimizeUnless might observe anything, recording empty set
RedundantStoreFinder:     marking #582:LoadField for revisit
RedundantStoreFinder:   #582 is LoadField[+0,kRepTaggedPointer](#221), removing all offsets [+0] from set
RedundantStoreFinder:     marking #221:Call for revisit
RedundantStoreFinder:   #221:Call might observe anything, recording empty set
RedundantStoreFinder:     marking #112:Call for revisit
RedundantStoreFinder:   #112:Call might observe anything, recording empty set
RedundantStoreFinder:     marking #202:StoreField for revisit
RedundantStoreFinder:   #202 is StoreField[+24,kRepTaggedSigned](#565), observable, recording in set
RedundantStoreFinder:     marking #186:StoreField for revisit
RedundantStoreFinder:   #186 is StoreField[+24,kRepTaggedSigned](#565), unobservable
RedundantStoreFinder:     marking #179:EffectPhi for revisit
RedundantStoreFinder:   #179:EffectPhi can observe nothing, set stays unchanged
RedundantStoreFinder:     marking #169:StoreField for revisit
RedundantStoreFinder:     marking #175:StoreField for revisit
RedundantStoreFinder:   #175 is StoreField[+24,kRepTaggedSigned](#565), unobservable
RedundantStoreFinder:     marking #174:StoreField for revisit
RedundantStoreFinder:   #174 is StoreField[+0,kRepTaggedPointer](#565), observable, recording in set
RedundantStoreFinder:     marking #566:LoadField for revisit
RedundantStoreFinder:   #566 is LoadField[+0,kRepTaggedPointer](#565), removing all offsets [+0] from set
RedundantStoreFinder:     marking #280:StoreField for revisit
RedundantStoreFinder:   #280 is StoreField[+48,kRepTagged](#565), observable, recording in set
RedundantStoreFinder:     marking #279:StoreField for revisit
RedundantStoreFinder:   #279 is StoreField[+40,kRepTagged](#565), observable, recording in set
RedundantStoreFinder:     marking #278:StoreField for revisit
RedundantStoreFinder:   #278 is StoreField[+32,kRepTagged](#565), observable, recording in set
RedundantStoreFinder:     marking #277:StoreField for revisit
RedundantStoreFinder:   #277 is StoreField[+24,kRepTagged](#565), observable, recording in set
RedundantStoreFinder:     marking #276:StoreField for revisit
RedundantStoreFinder:   #276 is StoreField[+16,kRepTaggedPointer](#565), observable, recording in set
RedundantStoreFinder:     marking #275:StoreField for revisit
RedundantStoreFinder:   #275 is StoreField[+8,kRepTagged](#565), observable, recording in set
RedundantStoreFinder:     marking #274:StoreField for revisit
RedundantStoreFinder:   #274 is StoreField[+0,kRepTaggedPointer](#565), observable, recording in set
RedundantStoreFinder:     marking #565:AllocateRaw for revisit
RedundantStoreFinder:   #565:AllocateRaw might observe anything, recording empty set
RedundantStoreFinder:     marking #499:EffectPhi for revisit
RedundantStoreFinder:   #499:EffectPhi can observe nothing, set stays unchanged
RedundantStoreFinder:     marking #492:Load for revisit
RedundantStoreFinder:     marking #37:Call for revisit
RedundantStoreFinder:   #37:Call might observe anything, recording empty set
RedundantStoreFinder:     marking #492:Load for revisit
RedundantStoreFinder:   #492:Load can observe nothing, set stays unchanged
RedundantStoreFinder:     marking #72:LoadField for revisit
RedundantStoreFinder: - Revisiting: #72:LoadField
RedundantStoreFinder:   #72 is LoadField[+24,kRepTaggedSigned](#71), removing all offsets [+24] from set
RedundantStoreFinder: + No change: stabilized. Not visiting effect inputs.
RedundantStoreFinder:   #169 is StoreField[+24,kRepTaggedSigned](#565), unobservable
RedundantStoreFinder:     marking #566:LoadField for revisit
RedundantStoreFinder: - Revisiting: #566:LoadField
RedundantStoreFinder:   #566 is LoadField[+0,kRepTaggedPointer](#565), removing all offsets [+0] from set
RedundantStoreFinder:     marking #280:StoreField for revisit
RedundantStoreFinder: - Revisiting: #280:StoreField
RedundantStoreFinder:   #280 is StoreField[+48,kRepTagged](#565), observable, recording in set
RedundantStoreFinder:     marking #279:StoreField for revisit
RedundantStoreFinder: - Revisiting: #279:StoreField
RedundantStoreFinder:   #279 is StoreField[+40,kRepTagged](#565), observable, recording in set
RedundantStoreFinder:     marking #278:StoreField for revisit
RedundantStoreFinder: - Revisiting: #278:StoreField
RedundantStoreFinder:   #278 is StoreField[+32,kRepTagged](#565), observable, recording in set
RedundantStoreFinder:     marking #277:StoreField for revisit
RedundantStoreFinder: - Revisiting: #277:StoreField
RedundantStoreFinder:   #277 is StoreField[+24,kRepTagged](#565), unobservable
RedundantStoreFinder: + No change: stabilized. Not visiting effect inputs.
RedundantStoreFinder:   #400 is StoreField[+24,kRepTaggedSigned](#71), observable, recording in set
RedundantStoreFinder:     marking #559:DeoptimizeIf for revisit
RedundantStoreFinder:   #559:DeoptimizeIf might observe anything, recording empty set
RedundantStoreFinder:     marking #402:LoadField for revisit
RedundantStoreFinder:   #402 is LoadField[+24,kRepTaggedSigned](#71), removing all offsets [+24] from set
RedundantStoreFinder:     marking #553:DeoptimizeIf for revisit
RedundantStoreFinder:   #553:DeoptimizeIf might observe anything, recording empty set
RedundantStoreFinder:     marking #295:LoadField for revisit
RedundantStoreFinder:   #295 is LoadField[+24,kRepTaggedSigned](#505), removing all offsets [+24] from set
RedundantStoreFinder:     marking #548:DeoptimizeUnless for revisit
RedundantStoreFinder:   #548:DeoptimizeUnless might observe anything, recording empty set
RedundantStoreFinder:     marking #546:LoadField for revisit
RedundantStoreFinder:   #546 is LoadField[+0,kRepTaggedPointer](#505), removing all offsets [+0] from set
RedundantStoreFinder:     marking #544:DeoptimizeIf for revisit
RedundantStoreFinder:   #544:DeoptimizeIf might observe anything, recording empty set
RedundantStoreFinder:     marking #541:LoadElement for revisit
RedundantStoreFinder:   #541:LoadElement can observe nothing, set stays unchanged
RedundantStoreFinder:     marking #540:UnsafePointerAdd for revisit
RedundantStoreFinder:   #540:UnsafePointerAdd can observe nothing, set stays unchanged
RedundantStoreFinder:     marking #539:Retain for revisit
RedundantStoreFinder:   #539:Retain can observe nothing, set stays unchanged
RedundantStoreFinder:     marking #538:StoreElement for revisit
RedundantStoreFinder:   #538:StoreElement can observe nothing, set stays unchanged
RedundantStoreFinder:     marking #537:UnsafePointerAdd for revisit
RedundantStoreFinder:   #537:UnsafePointerAdd can observe nothing, set stays unchanged
RedundantStoreFinder:     marking #536:Retain for revisit
RedundantStoreFinder:   #536:Retain can observe nothing, set stays unchanged
RedundantStoreFinder:     marking #535:StoreElement for revisit
RedundantStoreFinder:   #535:StoreElement can observe nothing, set stays unchanged
RedundantStoreFinder:     marking #534:UnsafePointerAdd for revisit
RedundantStoreFinder:   #534:UnsafePointerAdd can observe nothing, set stays unchanged
RedundantStoreFinder:     marking #533:Retain for revisit
RedundantStoreFinder:   #533:Retain can observe nothing, set stays unchanged
RedundantStoreFinder:     marking #532:StoreElement for revisit
RedundantStoreFinder:   #532:StoreElement can observe nothing, set stays unchanged
RedundantStoreFinder:     marking #531:UnsafePointerAdd for revisit
RedundantStoreFinder:   #531:UnsafePointerAdd can observe nothing, set stays unchanged
RedundantStoreFinder:     marking #530:Retain for revisit
RedundantStoreFinder:   #530:Retain can observe nothing, set stays unchanged
RedundantStoreFinder:     marking #529:DeoptimizeUnless for revisit
RedundantStoreFinder:   #529:DeoptimizeUnless might observe anything, recording empty set
RedundantStoreFinder:     marking #323:LoadField for revisit
RedundantStoreFinder:   #323 is LoadField[+24,kRepWord64](#325), removing all offsets [+24] from set
RedundantStoreFinder:     marking #324:LoadField for revisit
RedundantStoreFinder:   #324 is LoadField[+16,kRepTagged](#325), removing all offsets [+16] from set
RedundantStoreFinder:     marking #325:LoadField for revisit
RedundantStoreFinder:   #325 is LoadField[+16,kRepTaggedPointer](#329), removing all offsets [+16] from set
RedundantStoreFinder:     marking #326:LoadField for revisit
RedundantStoreFinder:   #326 is LoadField[+24,kRepTaggedPointer](#329), removing all offsets [+24] from set
RedundantStoreFinder:     marking #327:LoadField for revisit
RedundantStoreFinder:   #327 is LoadField[+48,kRepTaggedSigned](#329), removing all offsets [+48] from set
RedundantStoreFinder:     marking #525:DeoptimizeUnless for revisit
RedundantStoreFinder:   #525:DeoptimizeUnless might observe anything, recording empty set
RedundantStoreFinder:     marking #522:LoadField for revisit
RedundantStoreFinder:   #522 is LoadField[+0,kRepTaggedPointer](#329), removing all offsets [+0] from set
RedundantStoreFinder:     marking #329:Call for revisit
RedundantStoreFinder:   #329:Call might observe anything, recording empty set
RedundantStoreFinder:     marking #389:Call for revisit
RedundantStoreFinder:   #389:Call might observe anything, recording empty set
RedundantStoreFinder:     marking #340:StoreField for revisit
RedundantStoreFinder:   #340 is StoreField[+24,kRepTaggedSigned](#505), observable, recording in set
RedundantStoreFinder:     marking #353:StoreField for revisit
RedundantStoreFinder:   #353 is StoreField[+24,kRepTaggedSigned](#505), unobservable
RedundantStoreFinder:     marking #359:EffectPhi for revisit
RedundantStoreFinder:   #359:EffectPhi can observe nothing, set stays unchanged
RedundantStoreFinder:     marking #366:StoreField for revisit
RedundantStoreFinder:     marking #362:StoreField for revisit
RedundantStoreFinder:   #362 is StoreField[+24,kRepTaggedSigned](#505), unobservable
RedundantStoreFinder:     marking #363:StoreField for revisit
RedundantStoreFinder:   #363 is StoreField[+0,kRepTaggedPointer](#505), observable, recording in set
RedundantStoreFinder:     marking #506:LoadField for revisit
RedundantStoreFinder:   #506 is LoadField[+0,kRepTaggedPointer](#505), removing all offsets [+0] from set
RedundantStoreFinder:     marking #286:StoreField for revisit
RedundantStoreFinder:   #286 is StoreField[+48,kRepTagged](#505), observable, recording in set
RedundantStoreFinder:     marking #287:StoreField for revisit
RedundantStoreFinder:   #287 is StoreField[+40,kRepTagged](#505), observable, recording in set
RedundantStoreFinder:     marking #288:StoreField for revisit
RedundantStoreFinder:   #288 is StoreField[+32,kRepTagged](#505), observable, recording in set
RedundantStoreFinder:     marking #289:StoreField for revisit
RedundantStoreFinder:   #289 is StoreField[+24,kRepTagged](#505), observable, recording in set
RedundantStoreFinder:     marking #290:StoreField for revisit
RedundantStoreFinder:   #290 is StoreField[+16,kRepTaggedPointer](#505), observable, recording in set
RedundantStoreFinder:     marking #291:StoreField for revisit
RedundantStoreFinder:   #291 is StoreField[+8,kRepTagged](#505), observable, recording in set
RedundantStoreFinder:     marking #292:StoreField for revisit
RedundantStoreFinder:   #292 is StoreField[+0,kRepTaggedPointer](#505), observable, recording in set
RedundantStoreFinder:     marking #505:AllocateRaw for revisit
RedundantStoreFinder:   #505:AllocateRaw might observe anything, recording empty set
RedundantStoreFinder:     marking #488:EffectPhi for revisit
RedundantStoreFinder:   #488:EffectPhi can observe nothing, set stays unchanged
RedundantStoreFinder:     marking #481:Load for revisit
RedundantStoreFinder:     marking #405:Call for revisit
RedundantStoreFinder:   #405:Call might observe anything, recording empty set
RedundantStoreFinder:     marking #481:Load for revisit
RedundantStoreFinder:   #481:Load can observe nothing, set stays unchanged
RedundantStoreFinder:     marking #403:LoadField for revisit
RedundantStoreFinder: - Revisiting: #403:LoadField
RedundantStoreFinder:   #403 is LoadField[+24,kRepTaggedSigned](#71), removing all offsets [+24] from set
RedundantStoreFinder: + No change: stabilized. Not visiting effect inputs.
RedundantStoreFinder:   #366 is StoreField[+24,kRepTaggedSigned](#505), unobservable
RedundantStoreFinder:     marking #506:LoadField for revisit
RedundantStoreFinder: - Revisiting: #506:LoadField
RedundantStoreFinder:   #506 is LoadField[+0,kRepTaggedPointer](#505), removing all offsets [+0] from set
RedundantStoreFinder:     marking #286:StoreField for revisit
RedundantStoreFinder: - Revisiting: #286:StoreField
RedundantStoreFinder:   #286 is StoreField[+48,kRepTagged](#505), observable, recording in set
RedundantStoreFinder:     marking #287:StoreField for revisit
RedundantStoreFinder: - Revisiting: #287:StoreField
RedundantStoreFinder:   #287 is StoreField[+40,kRepTagged](#505), observable, recording in set
RedundantStoreFinder:     marking #288:StoreField for revisit
RedundantStoreFinder: - Revisiting: #288:StoreField
RedundantStoreFinder:   #288 is StoreField[+32,kRepTagged](#505), observable, recording in set
RedundantStoreFinder:     marking #289:StoreField for revisit
RedundantStoreFinder: - Revisiting: #289:StoreField
RedundantStoreFinder:   #289 is StoreField[+24,kRepTagged](#505), unobservable
RedundantStoreFinder: + No change: stabilized. Not visiting effect inputs.
RedundantStoreFinder:   #13:Terminate might observe anything, recording empty set
RedundantStoreFinder:     marking #10:EffectPhi for revisit
RedundantStoreFinder: - Revisiting: #10:EffectPhi
RedundantStoreFinder:   #10:EffectPhi can observe nothing, set stays unchanged
RedundantStoreFinder: + No change: stabilized. Not visiting effect inputs.
StoreStoreElimination::Run: Eliminating node #353:StoreField
StoreStoreElimination::Run: Eliminating node #362:StoreField
StoreStoreElimination::Run: Eliminating node #366:StoreField
StoreStoreElimination::Run: Eliminating node #169:StoreField
StoreStoreElimination::Run: Eliminating node #175:StoreField
StoreStoreElimination::Run: Eliminating node #186:StoreField
StoreStoreElimination::Run: Eliminating node #277:StoreField
StoreStoreElimination::Run: Eliminating node #289:StoreField
--- Raw source ---
() {
  var a = 0;
  for(i = 0; i < 100000; i++) {
    a = aVeryRecognizableFunctionName();
  }
  print(a)
}


--- Optimized code ---
optimization_id = 1
source_position = 310
kind = OPTIMIZED_FUNCTION
name = callVeryRecognizableFunctions
stack_slots = 11
compiler = turbofan
address = 0x3945ffddaec1
Body (size = 2012)
Instructions (size = 1876)
                  -- <not inlined:310> --
                  -- Prologue: check code start register --
0x3945ffddaf00     0  488d1df9ffffff REX.W leaq rbx,[rip+0xfffffff9]
0x3945ffddaf07     7  483bd9         REX.W cmpq rbx,rcx
0x3945ffddaf0a     a  7418           jz 0x3945ffddaf24  <+0x24>
                  Abort message: 
                  Wrong value in code start register passed
0x3945ffddaf0c     c  48ba000000003e000000 REX.W movq rdx,0x3e00000000
0x3945ffddaf16    16  49ba4031ab0d01000000 REX.W movq r10,0x10dab3140  (Abort)    ;; off heap target
0x3945ffddaf20    20  41ffd2         call r10
0x3945ffddaf23    23  cc             int3l
                  -- Prologue: check for deoptimization --
0x3945ffddaf24    24  488b59e0       REX.W movq rbx,[rcx-0x20]
0x3945ffddaf28    28  f6430f01       testb [rbx+0xf],0x1
0x3945ffddaf2c    2c  0f856ec3f3ff   jnz 0x3945ffd172a0      ;; code: Builtin::CompileLazyDeoptimizedCode
                  -- Prologue: generate speculation poison --
0x3945ffddaf32    32  488d1dc7ffffff REX.W leaq rbx,[rip+0xffffffc7]
0x3945ffddaf39    39  4531e4         xorl r12,r12
0x3945ffddaf3c    3c  483bcb         REX.W cmpq rcx,rbx
0x3945ffddaf3f    3f  48c7c3ffffffff REX.W movq rbx,0xffffffff
0x3945ffddaf46    46  4c0f44e3       REX.W cmovzq r12,rbx
0x3945ffddaf4a    4a  4c21e7         REX.W andq rdi,r12
0x3945ffddaf4d    4d  4c21e6         REX.W andq rsi,r12
0x3945ffddaf50    50  4c21e4         REX.W andq rsp,r12
                  -- B0 start (construct frame) --
0x3945ffddaf53    53  55             push rbp
0x3945ffddaf54    54  4889e5         REX.W movq rbp,rsp
0x3945ffddaf57    57  56             push rsi
0x3945ffddaf58    58  57             push rdi
                  Abort message: 
                  Should not directly enter OSR-compiled function
0x3945ffddaf59    59  48ba0000000027000000 REX.W movq rdx,0x2700000000
0x3945ffddaf63    63  49ba4031ab0d01000000 REX.W movq r10,0x10dab3140  (Abort)    ;; off heap target
0x3945ffddaf6d    6d  41ffd2         call r10
0x3945ffddaf70    70  cc             int3l
                  -- OSR entrypoint --
0x3945ffddaf71    71  49c7c4ffffffff REX.W movq r12,0xffffffff
0x3945ffddaf78    78  4883ec18       REX.W subq rsp,0x18
                  -- <not inlined:343> --
0x3945ffddaf7c    7c  48b861491ac605160000 REX.W movq rax,0x1605c61a4961    ;; object: 0x1605c61a4961 <PropertyCell name=0x160580605be1 <String[1]: i> value=7763>
0x3945ffddaf86    86  8b581b         movl rbx,[rax+0x1b]
0x3945ffddaf89    89  49ba0000000001000000 REX.W movq r10,0x100000000
0x3945ffddaf93    93  4c3bd3         REX.W cmpq r10,rbx
0x3945ffddaf96    96  7318           jnc 0x3945ffddafb0  <+0xb0>
                  Abort message: 
                  32 bit value in register is not zero-extended
0x3945ffddaf98    98  48ba0000000001000000 REX.W movq rdx,0x100000000
0x3945ffddafa2    a2  49ba4031ab0d01000000 REX.W movq r10,0x10dab3140  (Abort)    ;; off heap target
0x3945ffddafac    ac  41ffd2         call r10
0x3945ffddafaf    af  cc             int3l
0x3945ffddafb0    b0  488975c8       REX.W movq [rbp-0x38],rsi
0x3945ffddafb4    b4  81fba0860100   cmpl rbx,0x186a0
0x3945ffddafba    ba  0f8c09000000   jl 0x3945ffddafc9  <+0xc9>
                  -- B1 start --
0x3945ffddafc0    c0  488b45d8       REX.W movq rax,[rbp-0x28]
0x3945ffddafc4    c4  e9f9040000     jmp 0x3945ffddb4c2  <+0x5c2>
                  -- B2 start --
                  -- <not inlined:330> --
0x3945ffddafc9    c9  493ba5c00f0000 REX.W cmpq rsp,[r13+0xfc0]
0x3945ffddafd0    d0  0f86f1040000   jna 0x3945ffddb4c7  <+0x5c7>
                  -- B4 start --
                  -- B5 start --
0x3945ffddafd6    d6  498b9d7803c0ff REX.W movq rbx,[r13-0x3ffc88]
0x3945ffddafdd    dd  488d5338       REX.W leaq rdx,[rbx+0x38]
0x3945ffddafe1    e1  4939958003c0ff REX.W cmpq [r13-0x3ffc80],rdx
0x3945ffddafe8    e8  0f860c050000   jna 0x3945ffddb4fa  <+0x5fa>
                  -- B7 start --
                  -- B8 start --
0x3945ffddafee    ee  488d5338       REX.W leaq rdx,[rbx+0x38]
0x3945ffddaff2    f2  4989957803c0ff REX.W movq [r13-0x3ffc88],rdx
0x3945ffddaff9    f9  4883c301       REX.W addq rbx,0x1
                  -- <inlined(0):87> --
0x3945ffddaffd    fd  48ba7125202d05160000 REX.W movq rdx,0x16052d202571    ;; object: 0x16052d202571 <Map(HOLEY_ELEMENTS)>
0x3945ffddb007   107  488953ff       REX.W movq [rbx-0x1],rdx
0x3945ffddb00b   10b  498b4d70       REX.W movq rcx,[r13+0x70]
0x3945ffddb00f   10f  48894b07       REX.W movq [rbx+0x7],rcx
0x3945ffddb013   113  48894b0f       REX.W movq [rbx+0xf],rcx
0x3945ffddb017   117  498b75a0       REX.W movq rsi,[r13-0x60]
0x3945ffddb01b   11b  4889731f       REX.W movq [rbx+0x1f],rsi
0x3945ffddb01f   11f  48897327       REX.W movq [rbx+0x27],rsi
0x3945ffddb023   123  4889732f       REX.W movq [rbx+0x2f],rsi
                  -- <inlined(0):99> --
0x3945ffddb027   127  48895dc0       REX.W movq [rbp-0x40],rbx
0x3945ffddb02b   12b  48bf79d6202d05160000 REX.W movq rdi,0x16052d20d679    ;; object: 0x16052d20d679 <Map(HOLEY_ELEMENTS)>
0x3945ffddb035   135  48397bff       REX.W cmpq [rbx-0x1],rdi
0x3945ffddb039   139  0f8404000000   jz 0x3945ffddb043  <+0x143>
                  -- B9 start --
0x3945ffddb03f   13f  48897bff       REX.W movq [rbx-0x1],rdi
                  -- B10 start --
                  -- B11 start --
                  -- <inlined(0):127> --
0x3945ffddb043   143  49b80000000019000000 REX.W movq r8,0x1900000000
0x3945ffddb04d   14d  4c894317       REX.W movq [rbx+0x17],r8
0x3945ffddb051   151  56             push rsi
0x3945ffddb052   152  49b90000000010000000 REX.W movq r9,0x1000000000
0x3945ffddb05c   15c  4151           push r9
                  -- <inlined(0):145> --
0x3945ffddb05e   15e  488bde         REX.W movq rbx,rsi
0x3945ffddb061   161  48beb13e18c605160000 REX.W movq rsi,0x1605c6183eb1    ;; object: 0x1605c6183eb1 <NativeContext[248]>
0x3945ffddb06b   16b  b801000000     movl rax,0x1
0x3945ffddb070   170  48ba314a19c605160000 REX.W movq rdx,0x1605c6194a31    ;; object: 0x1605c6194a31 <JSFunction ArrayBuffer (sfi = 0x16058061b531)>
0x3945ffddb07a   17a  4c8bde         REX.W movq r11,rsi
0x3945ffddb07d   17d  488bfa         REX.W movq rdi,rdx
0x3945ffddb080   180  4c8bf2         REX.W movq r14,rdx
0x3945ffddb083   183  4c8bf8         REX.W movq r15,rax
0x3945ffddb086   186  49ba403aa20d01000000 REX.W movq r10,0x10da23a40  (JSBuiltinsConstructStub)    ;; off heap target
0x3945ffddb090   190  41ffd2         call r10
0x3945ffddb093   193  49c7c4ffffffff REX.W movq r12,0xffffffff
                  -- <inlined(0):178> --
0x3945ffddb09a   19a  488945b8       REX.W movq [rbp-0x48],rax
0x3945ffddb09e   19e  48beb13e18c605160000 REX.W movq rsi,0x1605c6183eb1    ;; object: 0x1605c6183eb1 <NativeContext[248]>
0x3945ffddb0a8   1a8  488bc8         REX.W movq rcx,rax
0x3945ffddb0ab   1ab  48b8399e18c605160000 REX.W movq rax,0x1605c6189e39    ;; object: 0x1605c6189e39 <JSFunction Int32Array (sfi = 0x16058061cab1)>
0x3945ffddb0b5   1b5  498b55a0       REX.W movq rdx,[r13-0x60]
0x3945ffddb0b9   1b9  488bd8         REX.W movq rbx,rax
0x3945ffddb0bc   1bc  4c8bc0         REX.W movq r8,rax
0x3945ffddb0bf   1bf  488bfa         REX.W movq rdi,rdx
0x3945ffddb0c2   1c2  49bae0ffd00d01000000 REX.W movq r10,0x10dd0ffe0  (CreateTypedArray)    ;; off heap target
0x3945ffddb0cc   1cc  41ffd2         call r10
0x3945ffddb0cf   1cf  49c7c4ffffffff REX.W movq r12,0xffffffff
                  -- <inlined(0):208> --
0x3945ffddb0d6   1d6  48bb9134202d05160000 REX.W movq rbx,0x16052d203491    ;; object: 0x16052d203491 <Map(INT32_ELEMENTS)>
0x3945ffddb0e0   1e0  483958ff       REX.W cmpq [rax-0x1],rbx
0x3945ffddb0e4   1e4  0f851a050000   jnz 0x3945ffddb604  <+0x704>
0x3945ffddb0ea   1ea  488b5017       REX.W movq rdx,[rax+0x17]
0x3945ffddb0ee   1ee  488b480f       REX.W movq rcx,[rax+0xf]
0x3945ffddb0f2   1f2  488b710f       REX.W movq rsi,[rcx+0xf]
0x3945ffddb0f6   1f6  8b7833         movl rdi,[rax+0x33]
0x3945ffddb0f9   1f9  49ba0000000001000000 REX.W movq r10,0x100000000
0x3945ffddb103   203  4c3bd7         REX.W cmpq r10,rdi
0x3945ffddb106   206  7318           jnc 0x3945ffddb120  <+0x220>
                  Abort message: 
                  32 bit value in register is not zero-extended
0x3945ffddb108   208  48ba0000000001000000 REX.W movq rdx,0x100000000
0x3945ffddb112   212  49ba4031ab0d01000000 REX.W movq r10,0x10dab3140  (Abort)    ;; off heap target
0x3945ffddb11c   21c  41ffd2         call r10
0x3945ffddb11f   21f  cc             int3l
0x3945ffddb120   220  488b4917       REX.W movq rcx,[rcx+0x17]
0x3945ffddb124   224  83ff01         cmpl rdi,0x1
0x3945ffddb127   227  0f86dc040000   jna 0x3945ffddb609  <+0x709>
0x3945ffddb12d   22d  41ba00000000   movl r10,0x0
0x3945ffddb133   233  4d0f46e2       REX.W cmovnaq r12,r10
0x3945ffddb137   237  488d3c0e       REX.W leaq rdi,[rsi+rcx*1]
0x3945ffddb13b   23b  c7470405000000 movl [rdi+0x4],0x5
                  -- <inlined(0):222> --
0x3945ffddb142   242  488d3c0e       REX.W leaq rdi,[rsi+rcx*1]
0x3945ffddb146   246  c7470407000000 movl [rdi+0x4],0x7
                  -- <inlined(0):236> --
0x3945ffddb14d   24d  488d3c0e       REX.W leaq rdi,[rsi+rcx*1]
0x3945ffddb151   251  c7470409000000 movl [rdi+0x4],0x9
                  -- <inlined(0):253> --
0x3945ffddb158   258  488d140e       REX.W leaq rdx,[rsi+rcx*1]
0x3945ffddb15c   25c  8b5204         movl rdx,[rdx+0x4]
0x3945ffddb15f   25f  49ba0000000001000000 REX.W movq r10,0x100000000
0x3945ffddb169   269  4c3bd2         REX.W cmpq r10,rdx
0x3945ffddb16c   26c  7318           jnc 0x3945ffddb186  <+0x286>
                  Abort message: 
                  32 bit value in register is not zero-extended
0x3945ffddb16e   26e  48ba0000000001000000 REX.W movq rdx,0x100000000
0x3945ffddb178   278  49ba4031ab0d01000000 REX.W movq r10,0x10dab3140  (Abort)    ;; off heap target
0x3945ffddb182   282  41ffd2         call r10
0x3945ffddb185   285  cc             int3l
0x3945ffddb186   286  4c21e2         REX.W andq rdx,r12
                  -- <inlined(0):257> --
0x3945ffddb189   289  83c211         addl rdx,0x11
0x3945ffddb18c   28c  0f807c040000   jo 0x3945ffddb60e  <+0x70e>
                  -- <inlined(0):265> --
0x3945ffddb192   292  48be79d6202d05160000 REX.W movq rsi,0x16052d20d679    ;; object: 0x16052d20d679 <Map(HOLEY_ELEMENTS)>
0x3945ffddb19c   29c  488b4dc0       REX.W movq rcx,[rbp-0x40]
0x3945ffddb1a0   2a0  483971ff       REX.W cmpq [rcx-0x1],rsi
0x3945ffddb1a4   2a4  0f8569040000   jnz 0x3945ffddb613  <+0x713>
                  -- <inlined(0):261> --
0x3945ffddb1aa   2aa  8b791b         movl rdi,[rcx+0x1b]
0x3945ffddb1ad   2ad  49ba0000000001000000 REX.W movq r10,0x100000000
0x3945ffddb1b7   2b7  4c3bd7         REX.W cmpq r10,rdi
0x3945ffddb1ba   2ba  7318           jnc 0x3945ffddb1d4  <+0x2d4>
                  Abort message: 
                  32 bit value in register is not zero-extended
0x3945ffddb1bc   2bc  48ba0000000001000000 REX.W movq rdx,0x100000000
0x3945ffddb1c6   2c6  49ba4031ab0d01000000 REX.W movq r10,0x10dab3140  (Abort)    ;; off heap target
0x3945ffddb1d0   2d0  41ffd2         call r10
0x3945ffddb1d3   2d3  cc             int3l
0x3945ffddb1d4   2d4  03fa           addl rdi,rdx
0x3945ffddb1d6   2d6  0f803c040000   jo 0x3945ffddb618  <+0x718>
                  -- <not inlined:354> --
0x3945ffddb1dc   2dc  48ba61491ac605160000 REX.W movq rdx,0x1605c61a4961    ;; object: 0x1605c61a4961 <PropertyCell name=0x160580605be1 <String[1]: i> value=7763>
0x3945ffddb1e6   2e6  448b421b       movl r8,[rdx+0x1b]
0x3945ffddb1ea   2ea  49ba0000000001000000 REX.W movq r10,0x100000000
0x3945ffddb1f4   2f4  4d3bd0         REX.W cmpq r10,r8
0x3945ffddb1f7   2f7  7318           jnc 0x3945ffddb211  <+0x311>
                  Abort message: 
                  32 bit value in register is not zero-extended
0x3945ffddb1f9   2f9  48ba0000000001000000 REX.W movq rdx,0x100000000
0x3945ffddb203   303  49ba4031ab0d01000000 REX.W movq r10,0x10dab3140  (Abort)    ;; off heap target
0x3945ffddb20d   30d  41ffd2         call r10
0x3945ffddb210   310  cc             int3l
0x3945ffddb211   311  4183c001       addl r8,0x1
0x3945ffddb215   315  0f8002040000   jo 0x3945ffddb61d  <+0x71d>
0x3945ffddb21b   31b  49c1e020       REX.W shlq r8, 32
0x3945ffddb21f   31f  4c894217       REX.W movq [rdx+0x17],r8
0x3945ffddb223   323  6666660f1f840000000000 nop
0x3945ffddb22e   32e  6690           nop
                  -- B12 start (loop up to 23) --
                  -- <not inlined:343> --
0x3945ffddb230   330  448b721b       movl r14,[rdx+0x1b]
0x3945ffddb234   334  49ba0000000001000000 REX.W movq r10,0x100000000
0x3945ffddb23e   33e  4d3bd6         REX.W cmpq r10,r14
0x3945ffddb241   341  7318           jnc 0x3945ffddb25b  <+0x35b>
                  Abort message: 
                  32 bit value in register is not zero-extended
0x3945ffddb243   343  48ba0000000001000000 REX.W movq rdx,0x100000000
0x3945ffddb24d   34d  49ba4031ab0d01000000 REX.W movq r10,0x10dab3140  (Abort)    ;; off heap target
0x3945ffddb257   357  41ffd2         call r10
0x3945ffddb25a   35a  cc             int3l
0x3945ffddb25b   35b  4d8b45a0       REX.W movq r8,[r13-0x60]
0x3945ffddb25f   35f  49bb0000000010000000 REX.W movq r11,0x1000000000
0x3945ffddb269   369  49b90000000019000000 REX.W movq r9,0x1900000000
0x3945ffddb273   373  498b4d70       REX.W movq rcx,[r13+0x70]
0x3945ffddb277   377  48b87125202d05160000 REX.W movq rax,0x16052d202571    ;; object: 0x16052d202571 <Map(HOLEY_ELEMENTS)>
0x3945ffddb281   381  4181fea0860100 cmpl r14,0x186a0
0x3945ffddb288   388  0f8d2d020000   jge 0x3945ffddb4bb  <+0x5bb>
                  -- B13 start (in loop 12) --
                  -- <not inlined:330> --
0x3945ffddb28e   38e  493ba5c00f0000 REX.W cmpq rsp,[r13+0xfc0]
0x3945ffddb295   395  0f868b020000   jna 0x3945ffddb526  <+0x626>
                  -- B15 start (in loop 12) --
                  -- B16 start (in loop 12) --
0x3945ffddb29b   39b  498bbd7803c0ff REX.W movq rdi,[r13-0x3ffc88]
0x3945ffddb2a2   3a2  4c8d7738       REX.W leaq r14,[rdi+0x38]
0x3945ffddb2a6   3a6  4d39b58003c0ff REX.W cmpq [r13-0x3ffc80],r14
0x3945ffddb2ad   3ad  0f86e0020000   jna 0x3945ffddb593  <+0x693>
                  -- B18 start (in loop 12) --
                  -- B19 start (in loop 12) --
0x3945ffddb2b3   3b3  4c8d7738       REX.W leaq r14,[rdi+0x38]
0x3945ffddb2b7   3b7  4d89b57803c0ff REX.W movq [r13-0x3ffc88],r14
0x3945ffddb2be   3be  4883c701       REX.W addq rdi,0x1
                  -- <inlined(0):87> --
0x3945ffddb2c2   3c2  488947ff       REX.W movq [rdi-0x1],rax
0x3945ffddb2c6   3c6  48894f07       REX.W movq [rdi+0x7],rcx
0x3945ffddb2ca   3ca  48894f0f       REX.W movq [rdi+0xf],rcx
0x3945ffddb2ce   3ce  4c89471f       REX.W movq [rdi+0x1f],r8
0x3945ffddb2d2   3d2  4c894727       REX.W movq [rdi+0x27],r8
0x3945ffddb2d6   3d6  4c89472f       REX.W movq [rdi+0x2f],r8
                  -- <inlined(0):99> --
0x3945ffddb2da   3da  48897dc0       REX.W movq [rbp-0x40],rdi
0x3945ffddb2de   3de  483977ff       REX.W cmpq [rdi-0x1],rsi
0x3945ffddb2e2   3e2  0f8404000000   jz 0x3945ffddb2ec  <+0x3ec>
                  -- B20 start (in loop 12) --
0x3945ffddb2e8   3e8  488977ff       REX.W movq [rdi-0x1],rsi
                  -- B21 start (in loop 12) --
                  -- B22 start (in loop 12) --
                  -- <inlined(0):127> --
0x3945ffddb2ec   3ec  4c894f17       REX.W movq [rdi+0x17],r9
0x3945ffddb2f0   3f0  4150           push r8
0x3945ffddb2f2   3f2  4153           push r11
                  -- <inlined(0):145> --
0x3945ffddb2f4   3f4  4c8bfb         REX.W movq r15,rbx
0x3945ffddb2f7   3f7  48ba314a19c605160000 REX.W movq rdx,0x1605c6194a31    ;; object: 0x1605c6194a31 <JSFunction ArrayBuffer (sfi = 0x16058061b531)>
0x3945ffddb301   401  b801000000     movl rax,0x1
0x3945ffddb306   406  498bd8         REX.W movq rbx,r8
0x3945ffddb309   409  48beb13e18c605160000 REX.W movq rsi,0x1605c6183eb1    ;; object: 0x1605c6183eb1 <NativeContext[248]>
0x3945ffddb313   413  4c8bf7         REX.W movq r14,rdi
0x3945ffddb316   416  488bfa         REX.W movq rdi,rdx
0x3945ffddb319   419  49ba403aa20d01000000 REX.W movq r10,0x10da23a40  (JSBuiltinsConstructStub)    ;; off heap target
0x3945ffddb323   423  41ffd2         call r10
0x3945ffddb326   426  49c7c4ffffffff REX.W movq r12,0xffffffff
                  -- <inlined(0):178> --
0x3945ffddb32d   42d  488945b8       REX.W movq [rbp-0x48],rax
0x3945ffddb331   431  488bc8         REX.W movq rcx,rax
0x3945ffddb334   434  48b8399e18c605160000 REX.W movq rax,0x1605c6189e39    ;; object: 0x1605c6189e39 <JSFunction Int32Array (sfi = 0x16058061cab1)>
0x3945ffddb33e   43e  48beb13e18c605160000 REX.W movq rsi,0x1605c6183eb1    ;; object: 0x1605c6183eb1 <NativeContext[248]>
0x3945ffddb348   448  498b55a0       REX.W movq rdx,[r13-0x60]
0x3945ffddb34c   44c  488bd8         REX.W movq rbx,rax
0x3945ffddb34f   44f  488bfa         REX.W movq rdi,rdx
0x3945ffddb352   452  49bae0ffd00d01000000 REX.W movq r10,0x10dd0ffe0  (CreateTypedArray)    ;; off heap target
0x3945ffddb35c   45c  41ffd2         call r10
0x3945ffddb35f   45f  49c7c4ffffffff REX.W movq r12,0xffffffff
                  -- <inlined(0):208> --
0x3945ffddb366   466  48bb9134202d05160000 REX.W movq rbx,0x16052d203491    ;; object: 0x16052d203491 <Map(INT32_ELEMENTS)>
0x3945ffddb370   470  483958ff       REX.W cmpq [rax-0x1],rbx
0x3945ffddb374   474  0f85b2020000   jnz 0x3945ffddb62c  <+0x72c>
0x3945ffddb37a   47a  488b5017       REX.W movq rdx,[rax+0x17]
0x3945ffddb37e   47e  488b480f       REX.W movq rcx,[rax+0xf]
0x3945ffddb382   482  488b710f       REX.W movq rsi,[rcx+0xf]
0x3945ffddb386   486  8b7833         movl rdi,[rax+0x33]
0x3945ffddb389   489  49ba0000000001000000 REX.W movq r10,0x100000000
0x3945ffddb393   493  4c3bd7         REX.W cmpq r10,rdi
0x3945ffddb396   496  7318           jnc 0x3945ffddb3b0  <+0x4b0>
                  Abort message: 
                  32 bit value in register is not zero-extended
0x3945ffddb398   498  48ba0000000001000000 REX.W movq rdx,0x100000000
0x3945ffddb3a2   4a2  49ba4031ab0d01000000 REX.W movq r10,0x10dab3140  (Abort)    ;; off heap target
0x3945ffddb3ac   4ac  41ffd2         call r10
0x3945ffddb3af   4af  cc             int3l
0x3945ffddb3b0   4b0  488b4917       REX.W movq rcx,[rcx+0x17]
0x3945ffddb3b4   4b4  83ff01         cmpl rdi,0x1
0x3945ffddb3b7   4b7  0f8674020000   jna 0x3945ffddb631  <+0x731>
0x3945ffddb3bd   4bd  41ba00000000   movl r10,0x0
0x3945ffddb3c3   4c3  4d0f46e2       REX.W cmovnaq r12,r10
0x3945ffddb3c7   4c7  488d3c0e       REX.W leaq rdi,[rsi+rcx*1]
0x3945ffddb3cb   4cb  c7470405000000 movl [rdi+0x4],0x5
                  -- <inlined(0):222> --
0x3945ffddb3d2   4d2  488d3c0e       REX.W leaq rdi,[rsi+rcx*1]
0x3945ffddb3d6   4d6  c7470407000000 movl [rdi+0x4],0x7
                  -- <inlined(0):236> --
0x3945ffddb3dd   4dd  488d3c0e       REX.W leaq rdi,[rsi+rcx*1]
0x3945ffddb3e1   4e1  c7470409000000 movl [rdi+0x4],0x9
                  -- <inlined(0):253> --
0x3945ffddb3e8   4e8  488d140e       REX.W leaq rdx,[rsi+rcx*1]
0x3945ffddb3ec   4ec  8b5204         movl rdx,[rdx+0x4]
0x3945ffddb3ef   4ef  49ba0000000001000000 REX.W movq r10,0x100000000
0x3945ffddb3f9   4f9  4c3bd2         REX.W cmpq r10,rdx
0x3945ffddb3fc   4fc  7318           jnc 0x3945ffddb416  <+0x516>
                  Abort message: 
                  32 bit value in register is not zero-extended
0x3945ffddb3fe   4fe  48ba0000000001000000 REX.W movq rdx,0x100000000
0x3945ffddb408   508  49ba4031ab0d01000000 REX.W movq r10,0x10dab3140  (Abort)    ;; off heap target
0x3945ffddb412   512  41ffd2         call r10
0x3945ffddb415   515  cc             int3l
0x3945ffddb416   516  4c21e2         REX.W andq rdx,r12
                  -- <inlined(0):257> --
0x3945ffddb419   519  83c211         addl rdx,0x11
0x3945ffddb41c   51c  0f8014020000   jo 0x3945ffddb636  <+0x736>
                  -- <inlined(0):265> --
0x3945ffddb422   522  488b75c0       REX.W movq rsi,[rbp-0x40]
0x3945ffddb426   526  48b979d6202d05160000 REX.W movq rcx,0x16052d20d679    ;; object: 0x16052d20d679 <Map(HOLEY_ELEMENTS)>
0x3945ffddb430   530  48394eff       REX.W cmpq [rsi-0x1],rcx
0x3945ffddb434   534  0f8501020000   jnz 0x3945ffddb63b  <+0x73b>
                  -- <inlined(0):261> --
0x3945ffddb43a   53a  8b7e1b         movl rdi,[rsi+0x1b]
0x3945ffddb43d   53d  49ba0000000001000000 REX.W movq r10,0x100000000
0x3945ffddb447   547  4c3bd7         REX.W cmpq r10,rdi
0x3945ffddb44a   54a  7318           jnc 0x3945ffddb464  <+0x564>
                  Abort message: 
                  32 bit value in register is not zero-extended
0x3945ffddb44c   54c  48ba0000000001000000 REX.W movq rdx,0x100000000
0x3945ffddb456   556  49ba4031ab0d01000000 REX.W movq r10,0x10dab3140  (Abort)    ;; off heap target
0x3945ffddb460   560  41ffd2         call r10
0x3945ffddb463   563  cc             int3l
0x3945ffddb464   564  03fa           addl rdi,rdx
0x3945ffddb466   566  0f80d4010000   jo 0x3945ffddb640  <+0x740>
                  -- <not inlined:354> --
0x3945ffddb46c   56c  48ba61491ac605160000 REX.W movq rdx,0x1605c61a4961    ;; object: 0x1605c61a4961 <PropertyCell name=0x160580605be1 <String[1]: i> value=7763>
0x3945ffddb476   576  448b421b       movl r8,[rdx+0x1b]
0x3945ffddb47a   57a  49ba0000000001000000 REX.W movq r10,0x100000000
0x3945ffddb484   584  4d3bd0         REX.W cmpq r10,r8
0x3945ffddb487   587  7318           jnc 0x3945ffddb4a1  <+0x5a1>
                  Abort message: 
                  32 bit value in register is not zero-extended
0x3945ffddb489   589  48ba0000000001000000 REX.W movq rdx,0x100000000
0x3945ffddb493   593  49ba4031ab0d01000000 REX.W movq r10,0x10dab3140  (Abort)    ;; off heap target
0x3945ffddb49d   59d  41ffd2         call r10
0x3945ffddb4a0   5a0  cc             int3l
0x3945ffddb4a1   5a1  4183c001       addl r8,0x1
0x3945ffddb4a5   5a5  0f809a010000   jo 0x3945ffddb645  <+0x745>
0x3945ffddb4ab   5ab  49c1e020       REX.W shlq r8, 32
0x3945ffddb4af   5af  4c894217       REX.W movq [rdx+0x17],r8
0x3945ffddb4b3   5b3  488bf1         REX.W movq rsi,rcx
0x3945ffddb4b6   5b6  e975fdffff     jmp 0x3945ffddb230  <+0x330>
                  -- B23 start --
                  -- <not inlined:343> --
0x3945ffddb4bb   5bb  48c1e720       REX.W shlq rdi, 32
0x3945ffddb4bf   5bf  488bc7         REX.W movq rax,rdi
                  -- B24 start --
                  -- <not inlined:407> --
0x3945ffddb4c2   5c2  e8c98b1200     call 0x3945fff04090     ;; debug: deopt position, script offset '407'
                                                             ;; debug: deopt position, inlining id '-1'
                                                             ;; debug: deopt reason 'Insufficient type feedback for call'
                                                             ;; debug: deopt index 16
                                                             ;; soft deoptimization bailout 16
                  -- B25 start (no frame) --
                  -- B3 start (deferred) --
                  -- <not inlined:330> --
0x3945ffddb4c7   5c7  48bb60e36c0d01000000 REX.W movq rbx,0x10d6ce360    ;; external reference (Runtime::StackGuard)
0x3945ffddb4d1   5d1  33c0           xorl rax,rax
0x3945ffddb4d3   5d3  488b75c8       REX.W movq rsi,[rbp-0x38]
0x3945ffddb4d7   5d7  49ba6065d70d01000000 REX.W movq r10,0x10dd76560  (CEntry_Return1_DontSaveFPRegs_ArgvOnStack_NoBuiltinExit)    ;; off heap target
0x3945ffddb4e1   5e1  41ffd2         call r10
0x3945ffddb4e4   5e4  49c7c4ffffffff REX.W movq r12,0xffffffff
0x3945ffddb4eb   5eb  48b861491ac605160000 REX.W movq rax,0x1605c61a4961    ;; object: 0x1605c61a4961 <PropertyCell name=0x160580605be1 <String[1]: i> value=7763>
0x3945ffddb4f5   5f5  e9dcfaffff     jmp 0x3945ffddafd6  <+0xd6>
                  -- B6 start (deferred) --
0x3945ffddb4fa   5fa  ba38000000     movl rdx,0x38
0x3945ffddb4ff   5ff  49ba80aca30d01000000 REX.W movq r10,0x10da3ac80  (AllocateInNewSpace)    ;; off heap target
0x3945ffddb509   609  41ffd2         call r10
0x3945ffddb50c   60c  49c7c4ffffffff REX.W movq r12,0xffffffff
0x3945ffddb513   613  488d58ff       REX.W leaq rbx,[rax-0x1]
0x3945ffddb517   617  48b861491ac605160000 REX.W movq rax,0x1605c61a4961    ;; object: 0x1605c61a4961 <PropertyCell name=0x160580605be1 <String[1]: i> value=7763>
0x3945ffddb521   621  e9c8faffff     jmp 0x3945ffddafee  <+0xee>
                  -- B14 start (deferred) (in loop 12) --
0x3945ffddb526   626  48bb60e36c0d01000000 REX.W movq rbx,0x10d6ce360    ;; external reference (Runtime::StackGuard)
0x3945ffddb530   630  33c0           xorl rax,rax
0x3945ffddb532   632  488b75c8       REX.W movq rsi,[rbp-0x38]
0x3945ffddb536   636  49ba6065d70d01000000 REX.W movq r10,0x10dd76560  (CEntry_Return1_DontSaveFPRegs_ArgvOnStack_NoBuiltinExit)    ;; off heap target
0x3945ffddb540   640  41ffd2         call r10
0x3945ffddb543   643  49c7c4ffffffff REX.W movq r12,0xffffffff
0x3945ffddb54a   64a  48b87125202d05160000 REX.W movq rax,0x16052d202571    ;; object: 0x16052d202571 <Map(HOLEY_ELEMENTS)>
0x3945ffddb554   654  48ba61491ac605160000 REX.W movq rdx,0x1605c61a4961    ;; object: 0x1605c61a4961 <PropertyCell name=0x160580605be1 <String[1]: i> value=7763>
0x3945ffddb55e   65e  48be79d6202d05160000 REX.W movq rsi,0x16052d20d679    ;; object: 0x16052d20d679 <Map(HOLEY_ELEMENTS)>
0x3945ffddb568   668  48bb9134202d05160000 REX.W movq rbx,0x16052d203491    ;; object: 0x16052d203491 <Map(INT32_ELEMENTS)>
0x3945ffddb572   672  4d8b45a0       REX.W movq r8,[r13-0x60]
0x3945ffddb576   676  49bb0000000010000000 REX.W movq r11,0x1000000000
0x3945ffddb580   680  49b90000000019000000 REX.W movq r9,0x1900000000
0x3945ffddb58a   68a  498b4d70       REX.W movq rcx,[r13+0x70]
0x3945ffddb58e   68e  e908fdffff     jmp 0x3945ffddb29b  <+0x39b>
                  -- B17 start (deferred) (in loop 12) --
0x3945ffddb593   693  ba38000000     movl rdx,0x38
0x3945ffddb598   698  49ba80aca30d01000000 REX.W movq r10,0x10da3ac80  (AllocateInNewSpace)    ;; off heap target
0x3945ffddb5a2   6a2  41ffd2         call r10
0x3945ffddb5a5   6a5  49c7c4ffffffff REX.W movq r12,0xffffffff
0x3945ffddb5ac   6ac  488d78ff       REX.W leaq rdi,[rax-0x1]
0x3945ffddb5b0   6b0  48ba61491ac605160000 REX.W movq rdx,0x1605c61a4961    ;; object: 0x1605c61a4961 <PropertyCell name=0x160580605be1 <String[1]: i> value=7763>
0x3945ffddb5ba   6ba  48be79d6202d05160000 REX.W movq rsi,0x16052d20d679    ;; object: 0x16052d20d679 <Map(HOLEY_ELEMENTS)>
0x3945ffddb5c4   6c4  48bb9134202d05160000 REX.W movq rbx,0x16052d203491    ;; object: 0x16052d203491 <Map(INT32_ELEMENTS)>
0x3945ffddb5ce   6ce  4d8b45a0       REX.W movq r8,[r13-0x60]
0x3945ffddb5d2   6d2  49bb0000000010000000 REX.W movq r11,0x1000000000
0x3945ffddb5dc   6dc  49b90000000019000000 REX.W movq r9,0x1900000000
0x3945ffddb5e6   6e6  498b4d70       REX.W movq rcx,[r13+0x70]
0x3945ffddb5ea   6ea  48b87125202d05160000 REX.W movq rax,0x16052d202571    ;; object: 0x16052d202571 <Map(HOLEY_ELEMENTS)>
0x3945ffddb5f4   6f4  e9bafcffff     jmp 0x3945ffddb2b3  <+0x3b3>
0x3945ffddb5f9   6f9  90             nop
0x3945ffddb5fa   6fa  e8418a0a00     call 0x3945ffe84040     ;; debug: deopt position, script offset '145'
                                                             ;; debug: deopt position, inlining id '0'
                                                             ;; debug: deopt reason '(unknown)'
                                                             ;; debug: deopt index 0
                                                             ;; lazy deoptimization bailout 0
0x3945ffddb5ff   6ff  e8418a0a00     call 0x3945ffe84045     ;; debug: deopt position, script offset '178'
                                                             ;; debug: deopt position, inlining id '0'
                                                             ;; debug: deopt reason '(unknown)'
                                                             ;; debug: deopt index 1
                                                             ;; lazy deoptimization bailout 1
0x3945ffddb604   704  e8418a0200     call 0x3945ffe0404a     ;; debug: deopt position, script offset '208'
                                                             ;; debug: deopt position, inlining id '0'
                                                             ;; debug: deopt reason 'wrong map'
                                                             ;; debug: deopt index 2
                                                             ;; eager deoptimization bailout 2
0x3945ffddb609   709  e8418a0200     call 0x3945ffe0404f     ;; debug: deopt position, script offset '208'
                                                             ;; debug: deopt position, inlining id '0'
                                                             ;; debug: deopt reason 'out of bounds'
                                                             ;; debug: deopt index 3
                                                             ;; eager deoptimization bailout 3
0x3945ffddb60e   70e  e8418a0200     call 0x3945ffe04054     ;; debug: deopt position, script offset '257'
                                                             ;; debug: deopt position, inlining id '0'
                                                             ;; debug: deopt reason 'overflow'
                                                             ;; debug: deopt index 4
                                                             ;; eager deoptimization bailout 4
0x3945ffddb613   713  e8418a0200     call 0x3945ffe04059     ;; debug: deopt position, script offset '265'
                                                             ;; debug: deopt position, inlining id '0'
                                                             ;; debug: deopt reason 'wrong map'
                                                             ;; debug: deopt index 5
                                                             ;; eager deoptimization bailout 5
0x3945ffddb618   718  e8418a0200     call 0x3945ffe0405e     ;; debug: deopt position, script offset '261'
                                                             ;; debug: deopt position, inlining id '0'
                                                             ;; debug: deopt reason 'overflow'
                                                             ;; debug: deopt index 6
                                                             ;; eager deoptimization bailout 6
0x3945ffddb61d   71d  e8418a0200     call 0x3945ffe04063     ;; debug: deopt position, script offset '354'
                                                             ;; debug: deopt position, inlining id '-1'
                                                             ;; debug: deopt reason 'overflow'
                                                             ;; debug: deopt index 7
                                                             ;; eager deoptimization bailout 7
0x3945ffddb622   722  e8418a0a00     call 0x3945ffe84068     ;; debug: deopt position, script offset '145'
                                                             ;; debug: deopt position, inlining id '0'
                                                             ;; debug: deopt reason '(unknown)'
                                                             ;; debug: deopt index 8
                                                             ;; lazy deoptimization bailout 8
0x3945ffddb627   727  e8418a0a00     call 0x3945ffe8406d     ;; debug: deopt position, script offset '178'
                                                             ;; debug: deopt position, inlining id '0'
                                                             ;; debug: deopt reason '(unknown)'
                                                             ;; debug: deopt index 9
                                                             ;; lazy deoptimization bailout 9
0x3945ffddb62c   72c  e8418a0200     call 0x3945ffe04072     ;; debug: deopt position, script offset '208'
                                                             ;; debug: deopt position, inlining id '0'
                                                             ;; debug: deopt reason 'wrong map'
                                                             ;; debug: deopt index 10
                                                             ;; eager deoptimization bailout 10
0x3945ffddb631   731  e8418a0200     call 0x3945ffe04077     ;; debug: deopt position, script offset '208'
                                                             ;; debug: deopt position, inlining id '0'
                                                             ;; debug: deopt reason 'out of bounds'
                                                             ;; debug: deopt index 11
                                                             ;; eager deoptimization bailout 11
0x3945ffddb636   736  e8418a0200     call 0x3945ffe0407c     ;; debug: deopt position, script offset '257'
                                                             ;; debug: deopt position, inlining id '0'
                                                             ;; debug: deopt reason 'overflow'
                                                             ;; debug: deopt index 12
                                                             ;; eager deoptimization bailout 12
0x3945ffddb63b   73b  e8418a0200     call 0x3945ffe04081     ;; debug: deopt position, script offset '265'
                                                             ;; debug: deopt position, inlining id '0'
                                                             ;; debug: deopt reason 'wrong map'
                                                             ;; debug: deopt index 13
                                                             ;; eager deoptimization bailout 13
0x3945ffddb640   740  e8418a0200     call 0x3945ffe04086     ;; debug: deopt position, script offset '261'
                                                             ;; debug: deopt position, inlining id '0'
                                                             ;; debug: deopt reason 'overflow'
                                                             ;; debug: deopt index 14
                                                             ;; eager deoptimization bailout 14
0x3945ffddb645   745  e8418a0200     call 0x3945ffe0408b     ;; debug: deopt position, script offset '354'
                                                             ;; debug: deopt position, inlining id '-1'
                                                             ;; debug: deopt reason 'overflow'
                                                             ;; debug: deopt index 15
                                                             ;; eager deoptimization bailout 15
0x3945ffddb64a   74a  e8468a0a00     call 0x3945ffe84095     ;; debug: deopt position, script offset '330'
                                                             ;; debug: deopt position, inlining id '-1'
                                                             ;; debug: deopt reason '(unknown)'
                                                             ;; debug: deopt index 17
                                                             ;; lazy deoptimization bailout 17
0x3945ffddb64f   74f  e8468a0a00     call 0x3945ffe8409a     ;; debug: deopt position, script offset '330'
                                                             ;; debug: deopt position, inlining id '-1'
                                                             ;; debug: deopt reason '(unknown)'
                                                             ;; debug: deopt index 18
                                                             ;; lazy deoptimization bailout 18
                  ;;; Safepoint table.

Source positions:
 pc offset  position
         0       310
        7c       343
        c9       330
        fd        87
       127        99
       143       127
       15e       145
       19a       178
       1d6       208
       242       222
       24d       236
       258       253
       289       257
       292       265
       2aa       261
       2dc       354
       330       343
       38e       330
       3c2        87
       3da        99
       3ec       127
       3f4       145
       42d       178
       466       208
       4d2       222
       4dd       236
       4e8       253
       519       257
       522       265
       53a       261
       56c       354
       5bb       343
       5c2       407
       5c7       330

Inlined functions (count = 1)
 0x1605c61a4449 <SharedFunctionInfo aVeryRecognizableFunctionName>

Deoptimization Input Data (deopt points = 19)
 index  bytecode-offset    pc
     0               45   193 
     1              687   1cf 
     2               72    NA 
     3               72    NA 
     4               98    NA 
     5               98    NA 
     6               98    NA 
     7               98    NA 
     8               45   426 
     9              687   45f 
    10               72    NA 
    11               72    NA 
    12               98    NA 
    13               98    NA 
    14               98    NA 
    15               98    NA 
    16               51    NA 
    17               24   5e4 
    18               24   643 

Safepoints (size = 136)
0x3945ffddb093     193   6fa  01100000000 (sp -> fp)       0
0x3945ffddb0cf     1cf   6ff  11100000000 (sp -> fp)       1
0x3945ffddb326     426   722  01100000000 (sp -> fp)       8
0x3945ffddb35f     45f   727  11100000000 (sp -> fp)       9
0x3945ffddb4e4     5e4   74a  00100000000 (sp -> fp)      17
0x3945ffddb50c     60c    NA  00100000000 (sp -> fp)  <none>
0x3945ffddb543     643   74f  00100000000 (sp -> fp)      18
0x3945ffddb5a5     6a5    NA  00100000000 (sp -> fp)  <none>

RelocInfo (size = 1400)
0x3945ffddaf00  comment  (-- <not inlined:310> --)
0x3945ffddaf00  comment  (-- Prologue: check code start register --)
0x3945ffddaf0c  comment  (Abort message: )
0x3945ffddaf0c  comment  (Wrong value in code start register passed)
0x3945ffddaf18  off heap target
0x3945ffddaf24  comment  (-- Prologue: check for deoptimization --)
0x3945ffddaf2e  code target (BUILTIN CompileLazyDeoptimizedCode)  (0x3945ffd172a0)
0x3945ffddaf32  comment  (-- Prologue: generate speculation poison --)
0x3945ffddaf53  comment  (-- B0 start (construct frame) --)
0x3945ffddaf59  comment  (Abort message: )
0x3945ffddaf59  comment  (Should not directly enter OSR-compiled function)
0x3945ffddaf65  off heap target
0x3945ffddaf71  comment  (-- OSR entrypoint --)
0x3945ffddaf7c  comment  (-- <not inlined:343> --)
0x3945ffddaf7e  embedded object  (0x1605c61a4961 <PropertyCell name=0x160580605be1 <String[1]: i> value=7763>)
0x3945ffddaf98  comment  (Abort message: )
0x3945ffddaf98  comment  (32 bit value in register is not zero-extended)
0x3945ffddafa4  off heap target
0x3945ffddafc0  comment  (-- B1 start --)
0x3945ffddafc9  comment  (-- B2 start --)
0x3945ffddafc9  comment  (-- <not inlined:330> --)
0x3945ffddafd6  comment  (-- B4 start --)
0x3945ffddafd6  comment  (-- B5 start --)
0x3945ffddafee  comment  (-- B7 start --)
0x3945ffddafee  comment  (-- B8 start --)
0x3945ffddaffd  comment  (-- <inlined(0):87> --)
0x3945ffddafff  embedded object  (0x16052d202571 <Map(HOLEY_ELEMENTS)>)
0x3945ffddb027  comment  (-- <inlined(0):99> --)
0x3945ffddb02d  embedded object  (0x16052d20d679 <Map(HOLEY_ELEMENTS)>)
0x3945ffddb03f  comment  (-- B9 start --)
0x3945ffddb043  comment  (-- B10 start --)
0x3945ffddb043  comment  (-- B11 start --)
0x3945ffddb043  comment  (-- <inlined(0):127> --)
0x3945ffddb05e  comment  (-- <inlined(0):145> --)
0x3945ffddb063  embedded object  (0x1605c6183eb1 <NativeContext[248]>)
0x3945ffddb072  embedded object  (0x1605c6194a31 <JSFunction ArrayBuffer (sfi = 0x16058061b531)>)
0x3945ffddb088  off heap target
0x3945ffddb09a  comment  (-- <inlined(0):178> --)
0x3945ffddb0a0  embedded object  (0x1605c6183eb1 <NativeContext[248]>)
0x3945ffddb0ad  embedded object  (0x1605c6189e39 <JSFunction Int32Array (sfi = 0x16058061cab1)>)
0x3945ffddb0c4  off heap target
0x3945ffddb0d6  comment  (-- <inlined(0):208> --)
0x3945ffddb0d8  embedded object  (0x16052d203491 <Map(INT32_ELEMENTS)>)
0x3945ffddb108  comment  (Abort message: )
0x3945ffddb108  comment  (32 bit value in register is not zero-extended)
0x3945ffddb114  off heap target
0x3945ffddb142  comment  (-- <inlined(0):222> --)
0x3945ffddb14d  comment  (-- <inlined(0):236> --)
0x3945ffddb158  comment  (-- <inlined(0):253> --)
0x3945ffddb16e  comment  (Abort message: )
0x3945ffddb16e  comment  (32 bit value in register is not zero-extended)
0x3945ffddb17a  off heap target
0x3945ffddb189  comment  (-- <inlined(0):257> --)
0x3945ffddb192  comment  (-- <inlined(0):265> --)
0x3945ffddb194  embedded object  (0x16052d20d679 <Map(HOLEY_ELEMENTS)>)
0x3945ffddb1aa  comment  (-- <inlined(0):261> --)
0x3945ffddb1bc  comment  (Abort message: )
0x3945ffddb1bc  comment  (32 bit value in register is not zero-extended)
0x3945ffddb1c8  off heap target
0x3945ffddb1dc  comment  (-- <not inlined:354> --)
0x3945ffddb1de  embedded object  (0x1605c61a4961 <PropertyCell name=0x160580605be1 <String[1]: i> value=7763>)
0x3945ffddb1f9  comment  (Abort message: )
0x3945ffddb1f9  comment  (32 bit value in register is not zero-extended)
0x3945ffddb205  off heap target
0x3945ffddb230  comment  (-- B12 start (loop up to 23) --)
0x3945ffddb230  comment  (-- <not inlined:343> --)
0x3945ffddb243  comment  (Abort message: )
0x3945ffddb243  comment  (32 bit value in register is not zero-extended)
0x3945ffddb24f  off heap target
0x3945ffddb279  embedded object  (0x16052d202571 <Map(HOLEY_ELEMENTS)>)
0x3945ffddb28e  comment  (-- B13 start (in loop 12) --)
0x3945ffddb28e  comment  (-- <not inlined:330> --)
0x3945ffddb29b  comment  (-- B15 start (in loop 12) --)
0x3945ffddb29b  comment  (-- B16 start (in loop 12) --)
0x3945ffddb2b3  comment  (-- B18 start (in loop 12) --)
0x3945ffddb2b3  comment  (-- B19 start (in loop 12) --)
0x3945ffddb2c2  comment  (-- <inlined(0):87> --)
0x3945ffddb2da  comment  (-- <inlined(0):99> --)
0x3945ffddb2e8  comment  (-- B20 start (in loop 12) --)
0x3945ffddb2ec  comment  (-- B21 start (in loop 12) --)
0x3945ffddb2ec  comment  (-- B22 start (in loop 12) --)
0x3945ffddb2ec  comment  (-- <inlined(0):127> --)
0x3945ffddb2f4  comment  (-- <inlined(0):145> --)
0x3945ffddb2f9  embedded object  (0x1605c6194a31 <JSFunction ArrayBuffer (sfi = 0x16058061b531)>)
0x3945ffddb30b  embedded object  (0x1605c6183eb1 <NativeContext[248]>)
0x3945ffddb31b  off heap target
0x3945ffddb32d  comment  (-- <inlined(0):178> --)
0x3945ffddb336  embedded object  (0x1605c6189e39 <JSFunction Int32Array (sfi = 0x16058061cab1)>)
0x3945ffddb340  embedded object  (0x1605c6183eb1 <NativeContext[248]>)
0x3945ffddb354  off heap target
0x3945ffddb366  comment  (-- <inlined(0):208> --)
0x3945ffddb368  embedded object  (0x16052d203491 <Map(INT32_ELEMENTS)>)
0x3945ffddb398  comment  (Abort message: )
0x3945ffddb398  comment  (32 bit value in register is not zero-extended)
0x3945ffddb3a4  off heap target
0x3945ffddb3d2  comment  (-- <inlined(0):222> --)
0x3945ffddb3dd  comment  (-- <inlined(0):236> --)
0x3945ffddb3e8  comment  (-- <inlined(0):253> --)
0x3945ffddb3fe  comment  (Abort message: )
0x3945ffddb3fe  comment  (32 bit value in register is not zero-extended)
0x3945ffddb40a  off heap target
0x3945ffddb419  comment  (-- <inlined(0):257> --)
0x3945ffddb422  comment  (-- <inlined(0):265> --)
0x3945ffddb428  embedded object  (0x16052d20d679 <Map(HOLEY_ELEMENTS)>)
0x3945ffddb43a  comment  (-- <inlined(0):261> --)
0x3945ffddb44c  comment  (Abort message: )
0x3945ffddb44c  comment  (32 bit value in register is not zero-extended)
0x3945ffddb458  off heap target
0x3945ffddb46c  comment  (-- <not inlined:354> --)
0x3945ffddb46e  embedded object  (0x1605c61a4961 <PropertyCell name=0x160580605be1 <String[1]: i> value=7763>)
0x3945ffddb489  comment  (Abort message: )
0x3945ffddb489  comment  (32 bit value in register is not zero-extended)
0x3945ffddb495  off heap target
0x3945ffddb4bb  comment  (-- B23 start --)
0x3945ffddb4bb  comment  (-- <not inlined:343> --)
0x3945ffddb4c2  comment  (-- B24 start --)
0x3945ffddb4c2  comment  (-- <not inlined:407> --)
0x3945ffddb4c2  deopt script offset  (407)
0x3945ffddb4c2  deopt inlining id  (-1)
0x3945ffddb4c2  deopt reason  (Insufficient type feedback for call)
0x3945ffddb4c2  deopt index
0x3945ffddb4c3  runtime entry  (soft deoptimization bailout 16)
0x3945ffddb4c7  comment  (-- B25 start (no frame) --)
0x3945ffddb4c7  comment  (-- B3 start (deferred) --)
0x3945ffddb4c7  comment  (-- <not inlined:330> --)
0x3945ffddb4c9  external reference (Runtime::StackGuard)  (0x10d6ce360)
0x3945ffddb4d9  off heap target
0x3945ffddb4ed  embedded object  (0x1605c61a4961 <PropertyCell name=0x160580605be1 <String[1]: i> value=7763>)
0x3945ffddb4fa  comment  (-- B6 start (deferred) --)
0x3945ffddb501  off heap target
0x3945ffddb519  embedded object  (0x1605c61a4961 <PropertyCell name=0x160580605be1 <String[1]: i> value=7763>)
0x3945ffddb526  comment  (-- B14 start (deferred) (in loop 12) --)
0x3945ffddb528  external reference (Runtime::StackGuard)  (0x10d6ce360)
0x3945ffddb538  off heap target
0x3945ffddb54c  embedded object  (0x16052d202571 <Map(HOLEY_ELEMENTS)>)
0x3945ffddb556  embedded object  (0x1605c61a4961 <PropertyCell name=0x160580605be1 <String[1]: i> value=7763>)
0x3945ffddb560  embedded object  (0x16052d20d679 <Map(HOLEY_ELEMENTS)>)
0x3945ffddb56a  embedded object  (0x16052d203491 <Map(INT32_ELEMENTS)>)
0x3945ffddb593  comment  (-- B17 start (deferred) (in loop 12) --)
0x3945ffddb59a  off heap target
0x3945ffddb5b2  embedded object  (0x1605c61a4961 <PropertyCell name=0x160580605be1 <String[1]: i> value=7763>)
0x3945ffddb5bc  embedded object  (0x16052d20d679 <Map(HOLEY_ELEMENTS)>)
0x3945ffddb5c6  embedded object  (0x16052d203491 <Map(INT32_ELEMENTS)>)
0x3945ffddb5ec  embedded object  (0x16052d202571 <Map(HOLEY_ELEMENTS)>)
0x3945ffddb5fa  deopt script offset  (145)
0x3945ffddb5fa  deopt inlining id  (0)
0x3945ffddb5fa  deopt reason  ((unknown))
0x3945ffddb5fa  deopt index
0x3945ffddb5fb  runtime entry  (lazy deoptimization bailout 0)
0x3945ffddb5ff  deopt script offset  (178)
0x3945ffddb5ff  deopt inlining id  (0)
0x3945ffddb5ff  deopt reason  ((unknown))
0x3945ffddb5ff  deopt index
0x3945ffddb600  runtime entry  (lazy deoptimization bailout 1)
0x3945ffddb604  deopt script offset  (208)
0x3945ffddb604  deopt inlining id  (0)
0x3945ffddb604  deopt reason  (wrong map)
0x3945ffddb604  deopt index
0x3945ffddb605  runtime entry  (eager deoptimization bailout 2)
0x3945ffddb609  deopt script offset  (208)
0x3945ffddb609  deopt inlining id  (0)
0x3945ffddb609  deopt reason  (out of bounds)
0x3945ffddb609  deopt index
0x3945ffddb60a  runtime entry  (eager deoptimization bailout 3)
0x3945ffddb60e  deopt script offset  (257)
0x3945ffddb60e  deopt inlining id  (0)
0x3945ffddb60e  deopt reason  (overflow)
0x3945ffddb60e  deopt index
0x3945ffddb60f  runtime entry  (eager deoptimization bailout 4)
0x3945ffddb613  deopt script offset  (265)
0x3945ffddb613  deopt inlining id  (0)
0x3945ffddb613  deopt reason  (wrong map)
0x3945ffddb613  deopt index
0x3945ffddb614  runtime entry  (eager deoptimization bailout 5)
0x3945ffddb618  deopt script offset  (261)
0x3945ffddb618  deopt inlining id  (0)
0x3945ffddb618  deopt reason  (overflow)
0x3945ffddb618  deopt index
0x3945ffddb619  runtime entry  (eager deoptimization bailout 6)
0x3945ffddb61d  deopt script offset  (354)
0x3945ffddb61d  deopt inlining id  (-1)
0x3945ffddb61d  deopt reason  (overflow)
0x3945ffddb61d  deopt index
0x3945ffddb61e  runtime entry  (eager deoptimization bailout 7)
0x3945ffddb622  deopt script offset  (145)
0x3945ffddb622  deopt inlining id  (0)
0x3945ffddb622  deopt reason  ((unknown))
0x3945ffddb622  deopt index
0x3945ffddb623  runtime entry  (lazy deoptimization bailout 8)
0x3945ffddb627  deopt script offset  (178)
0x3945ffddb627  deopt inlining id  (0)
0x3945ffddb627  deopt reason  ((unknown))
0x3945ffddb627  deopt index
0x3945ffddb628  runtime entry  (lazy deoptimization bailout 9)
0x3945ffddb62c  deopt script offset  (208)
0x3945ffddb62c  deopt inlining id  (0)
0x3945ffddb62c  deopt reason  (wrong map)
0x3945ffddb62c  deopt index
0x3945ffddb62d  runtime entry  (eager deoptimization bailout 10)
0x3945ffddb631  deopt script offset  (208)
0x3945ffddb631  deopt inlining id  (0)
0x3945ffddb631  deopt reason  (out of bounds)
0x3945ffddb631  deopt index
0x3945ffddb632  runtime entry  (eager deoptimization bailout 11)
0x3945ffddb636  deopt script offset  (257)
0x3945ffddb636  deopt inlining id  (0)
0x3945ffddb636  deopt reason  (overflow)
0x3945ffddb636  deopt index
0x3945ffddb637  runtime entry  (eager deoptimization bailout 12)
0x3945ffddb63b  deopt script offset  (265)
0x3945ffddb63b  deopt inlining id  (0)
0x3945ffddb63b  deopt reason  (wrong map)
0x3945ffddb63b  deopt index
0x3945ffddb63c  runtime entry  (eager deoptimization bailout 13)
0x3945ffddb640  deopt script offset  (261)
0x3945ffddb640  deopt inlining id  (0)
0x3945ffddb640  deopt reason  (overflow)
0x3945ffddb640  deopt index
0x3945ffddb641  runtime entry  (eager deoptimization bailout 14)
0x3945ffddb645  deopt script offset  (354)
0x3945ffddb645  deopt inlining id  (-1)
0x3945ffddb645  deopt reason  (overflow)
0x3945ffddb645  deopt index
0x3945ffddb646  runtime entry  (eager deoptimization bailout 15)
0x3945ffddb64a  deopt script offset  (330)
0x3945ffddb64a  deopt inlining id  (-1)
0x3945ffddb64a  deopt reason  ((unknown))
0x3945ffddb64a  deopt index
0x3945ffddb64b  runtime entry  (lazy deoptimization bailout 17)
0x3945ffddb64f  deopt script offset  (330)
0x3945ffddb64f  deopt inlining id  (-1)
0x3945ffddb64f  deopt reason  ((unknown))
0x3945ffddb64f  deopt index
0x3945ffddb650  runtime entry  (lazy deoptimization bailout 18)
0x3945ffddb654  comment  (;;; Safepoint table.)

--- End code ---
---------------------------------------------------
Finished compiling method callVeryRecognizableFunctions using Turbofan
51
